ccopy_reg
_reconstructor
p1
(cmatplotlib.font_manager
FontManager
p2
c__builtin__
object
p3
NtRp4
(dp5
S'ttflist'
p6
(lp7
g1
(cmatplotlib.font_manager
FontEntry
p8
g3
NtRp9
(dp10
S'style'
p11
Vnormal
p12
sS'name'
p13
VSTIXSizeThreeSym
p14
sS'weight'
p15
I700
sS'stretch'
p16
g12
sS'variant'
p17
g12
sS'fname'
p18
VC:\u005cUsers\u005cAnirudh\u005cAnaconda2\u005clib\u005csite-packages\u005cmatplotlib\u005cmpl-data\u005cfonts\u005cttf\u005cSTIXSizThreeSymBol.ttf
p19
sS'size'
p20
Vscalable
p21
sbag1
(g8
g3
NtRp22
(dp23
g11
Vitalic
p24
sg13
VSTIXGeneral
p25
sg15
I700
sg16
g12
sg17
g12
sg18
VC:\u005cUsers\u005cAnirudh\u005cAnaconda2\u005clib\u005csite-packages\u005cmatplotlib\u005cmpl-data\u005cfonts\u005cttf\u005cSTIXGeneralBolIta.ttf
p26
sg20
g21
sbag1
(g8
g3
NtRp27
(dp28
g11
g12
sg13
VSTIXSizeTwoSym
p29
sg15
I400
sg16
g12
sg17
g12
sg18
VC:\u005cUsers\u005cAnirudh\u005cAnaconda2\u005clib\u005csite-packages\u005cmatplotlib\u005cmpl-data\u005cfonts\u005cttf\u005cSTIXSizTwoSymReg.ttf
p30
sg20
g21
sbag1
(g8
g3
NtRp31
(dp32
g11
g12
sg13
VSTIXNonUnicode
p33
sg15
I700
sg16
g12
sg17
g12
sg18
VC:\u005cUsers\u005cAnirudh\u005cAnaconda2\u005clib\u005csite-packages\u005cmatplotlib\u005cmpl-data\u005cfonts\u005cttf\u005cSTIXNonUniBol.ttf
p34
sg20
g21
sbag1
(g8
g3
NtRp35
(dp36
g11
Voblique
p37
sg13
VBitstream Vera Sans
p38
sg15
I400
sg16
g12
sg17
g12
sg18
VC:\u005cUsers\u005cAnirudh\u005cAnaconda2\u005clib\u005csite-packages\u005cmatplotlib\u005cmpl-data\u005cfonts\u005cttf\u005cVeraIt.ttf
p39
sg20
g21
sbag1
(g8
g3
NtRp40
(dp41
g11
g37
sg13
VBitstream Vera Sans Mono
p42
sg15
I400
sg16
g12
sg17
g12
sg18
VC:\u005cUsers\u005cAnirudh\u005cAnaconda2\u005clib\u005csite-packages\u005cmatplotlib\u005cmpl-data\u005cfonts\u005cttf\u005cVeraMoIt.ttf
p43
sg20
g21
sbag1
(g8
g3
NtRp44
(dp45
g11
g12
sg13
Vcmb10
p46
sg15
I400
sg16
g12
sg17
g12
sg18
VC:\u005cUsers\u005cAnirudh\u005cAnaconda2\u005clib\u005csite-packages\u005cmatplotlib\u005cmpl-data\u005cfonts\u005cttf\u005ccmb10.ttf
p47
sg20
g21
sbag1
(g8
g3
NtRp48
(dp49
g11
g12
sg13
Vcmtt10
p50
sg15
I400
sg16
g12
sg17
g12
sg18
VC:\u005cUsers\u005cAnirudh\u005cAnaconda2\u005clib\u005csite-packages\u005cmatplotlib\u005cmpl-data\u005cfonts\u005cttf\u005ccmtt10.ttf
p51
sg20
g21
sbag1
(g8
g3
NtRp52
(dp53
g11
g12
sg13
VBitstream Vera Serif
p54
sg15
I700
sg16
g12
sg17
g12
sg18
VC:\u005cUsers\u005cAnirudh\u005cAnaconda2\u005clib\u005csite-packages\u005cmatplotlib\u005cmpl-data\u005cfonts\u005cttf\u005cVeraSeBd.ttf
p55
sg20
g21
sbag1
(g8
g3
NtRp56
(dp57
g11
g12
sg13
VBitstream Vera Sans Mono
p58
sg15
I400
sg16
g12
sg17
g12
sg18
VC:\u005cUsers\u005cAnirudh\u005cAnaconda2\u005clib\u005csite-packages\u005cmatplotlib\u005cmpl-data\u005cfonts\u005cttf\u005cVeraMono.ttf
p59
sg20
g21
sbag1
(g8
g3
NtRp60
(dp61
g11
g12
sg13
VSTIXSizeTwoSym
p62
sg15
I700
sg16
g12
sg17
g12
sg18
VC:\u005cUsers\u005cAnirudh\u005cAnaconda2\u005clib\u005csite-packages\u005cmatplotlib\u005cmpl-data\u005cfonts\u005cttf\u005cSTIXSizTwoSymBol.ttf
p63
sg20
g21
sbag1
(g8
g3
NtRp64
(dp65
g11
g12
sg13
VBitstream Vera Sans Mono
p66
sg15
I700
sg16
g12
sg17
g12
sg18
VC:\u005cUsers\u005cAnirudh\u005cAnaconda2\u005clib\u005csite-packages\u005cmatplotlib\u005cmpl-data\u005cfonts\u005cttf\u005cVeraMoBd.ttf
p67
sg20
g21
sbag1
(g8
g3
NtRp68
(dp69
g11
g12
sg13
Vcmex10
p70
sg15
I400
sg16
g12
sg17
g12
sg18
VC:\u005cUsers\u005cAnirudh\u005cAnaconda2\u005clib\u005csite-packages\u005cmatplotlib\u005cmpl-data\u005cfonts\u005cttf\u005ccmex10.ttf
p71
sg20
g21
sbag1
(g8
g3
NtRp72
(dp73
g11
g12
sg13
VSTIXSizeOneSym
p74
sg15
I400
sg16
g12
sg17
g12
sg18
VC:\u005cUsers\u005cAnirudh\u005cAnaconda2\u005clib\u005csite-packages\u005cmatplotlib\u005cmpl-data\u005cfonts\u005cttf\u005cSTIXSizOneSymReg.ttf
p75
sg20
g21
sbag1
(g8
g3
NtRp76
(dp77
g11
g12
sg13
Vcmss10
p78
sg15
I400
sg16
g12
sg17
g12
sg18
VC:\u005cUsers\u005cAnirudh\u005cAnaconda2\u005clib\u005csite-packages\u005cmatplotlib\u005cmpl-data\u005cfonts\u005cttf\u005ccmss10.ttf
p79
sg20
g21
sbag1
(g8
g3
NtRp80
(dp81
g11
g12
sg13
VSTIXSizeOneSym
p82
sg15
I700
sg16
g12
sg17
g12
sg18
VC:\u005cUsers\u005cAnirudh\u005cAnaconda2\u005clib\u005csite-packages\u005cmatplotlib\u005cmpl-data\u005cfonts\u005cttf\u005cSTIXSizOneSymBol.ttf
p83
sg20
g21
sbag1
(g8
g3
NtRp84
(dp85
g11
g24
sg13
VSTIXGeneral
p86
sg15
I400
sg16
g12
sg17
g12
sg18
VC:\u005cUsers\u005cAnirudh\u005cAnaconda2\u005clib\u005csite-packages\u005cmatplotlib\u005cmpl-data\u005cfonts\u005cttf\u005cSTIXGeneralItalic.ttf
p87
sg20
g21
sbag1
(g8
g3
NtRp88
(dp89
g11
g37
sg13
VBitstream Vera Sans
p90
sg15
I700
sg16
g12
sg17
g12
sg18
VC:\u005cUsers\u005cAnirudh\u005cAnaconda2\u005clib\u005csite-packages\u005cmatplotlib\u005cmpl-data\u005cfonts\u005cttf\u005cVeraBI.ttf
p91
sg20
g21
sbag1
(g8
g3
NtRp92
(dp93
g11
g24
sg13
VSTIXNonUnicode
p94
sg15
I400
sg16
g12
sg17
g12
sg18
VC:\u005cUsers\u005cAnirudh\u005cAnaconda2\u005clib\u005csite-packages\u005cmatplotlib\u005cmpl-data\u005cfonts\u005cttf\u005cSTIXNonUniIta.ttf
p95
sg20
g21
sbag1
(g8
g3
NtRp96
(dp97
g11
g12
sg13
VSTIXGeneral
p98
sg15
I400
sg16
g12
sg17
g12
sg18
VC:\u005cUsers\u005cAnirudh\u005cAnaconda2\u005clib\u005csite-packages\u005cmatplotlib\u005cmpl-data\u005cfonts\u005cttf\u005cSTIXGeneral.ttf
p99
sg20
g21
sbag1
(g8
g3
NtRp100
(dp101
g11
g12
sg13
VBitstream Vera Sans
p102
sg15
I700
sg16
g12
sg17
g12
sg18
VC:\u005cUsers\u005cAnirudh\u005cAnaconda2\u005clib\u005csite-packages\u005cmatplotlib\u005cmpl-data\u005cfonts\u005cttf\u005cVeraBd.ttf
p103
sg20
g21
sbag1
(g8
g3
NtRp104
(dp105
g11
g12
sg13
VSTIXSizeThreeSym
p106
sg15
I400
sg16
g12
sg17
g12
sg18
VC:\u005cUsers\u005cAnirudh\u005cAnaconda2\u005clib\u005csite-packages\u005cmatplotlib\u005cmpl-data\u005cfonts\u005cttf\u005cSTIXSizThreeSymReg.ttf
p107
sg20
g21
sbag1
(g8
g3
NtRp108
(dp109
g11
g12
sg13
VSTIXSizeFourSym
p110
sg15
I700
sg16
g12
sg17
g12
sg18
VC:\u005cUsers\u005cAnirudh\u005cAnaconda2\u005clib\u005csite-packages\u005cmatplotlib\u005cmpl-data\u005cfonts\u005cttf\u005cSTIXSizFourSymBol.ttf
p111
sg20
g21
sbag1
(g8
g3
NtRp112
(dp113
g11
g12
sg13
Vcmr10
p114
sg15
I400
sg16
g12
sg17
g12
sg18
VC:\u005cUsers\u005cAnirudh\u005cAnaconda2\u005clib\u005csite-packages\u005cmatplotlib\u005cmpl-data\u005cfonts\u005cttf\u005ccmr10.ttf
p115
sg20
g21
sbag1
(g8
g3
NtRp116
(dp117
g11
g12
sg13
VSTIXNonUnicode
p118
sg15
I400
sg16
g12
sg17
g12
sg18
VC:\u005cUsers\u005cAnirudh\u005cAnaconda2\u005clib\u005csite-packages\u005cmatplotlib\u005cmpl-data\u005cfonts\u005cttf\u005cSTIXNonUni.ttf
p119
sg20
g21
sbag1
(g8
g3
NtRp120
(dp121
g11
g12
sg13
VBitstream Vera Serif
p122
sg15
I400
sg16
g12
sg17
g12
sg18
VC:\u005cUsers\u005cAnirudh\u005cAnaconda2\u005clib\u005csite-packages\u005cmatplotlib\u005cmpl-data\u005cfonts\u005cttf\u005cVeraSe.ttf
p123
sg20
g21
sbag1
(g8
g3
NtRp124
(dp125
g11
g12
sg13
VBitstream Vera Sans
p126
sg15
I400
sg16
g12
sg17
g12
sg18
VC:\u005cUsers\u005cAnirudh\u005cAnaconda2\u005clib\u005csite-packages\u005cmatplotlib\u005cmpl-data\u005cfonts\u005cttf\u005cVera.ttf
p127
sg20
g21
sbag1
(g8
g3
NtRp128
(dp129
g11
g12
sg13
VSTIXGeneral
p130
sg15
I700
sg16
g12
sg17
g12
sg18
VC:\u005cUsers\u005cAnirudh\u005cAnaconda2\u005clib\u005csite-packages\u005cmatplotlib\u005cmpl-data\u005cfonts\u005cttf\u005cSTIXGeneralBol.ttf
p131
sg20
g21
sbag1
(g8
g3
NtRp132
(dp133
g11
g12
sg13
Vcmsy10
p134
sg15
I400
sg16
g12
sg17
g12
sg18
VC:\u005cUsers\u005cAnirudh\u005cAnaconda2\u005clib\u005csite-packages\u005cmatplotlib\u005cmpl-data\u005cfonts\u005cttf\u005ccmsy10.ttf
p135
sg20
g21
sbag1
(g8
g3
NtRp136
(dp137
g11
g24
sg13
VSTIXNonUnicode
p138
sg15
I700
sg16
g12
sg17
g12
sg18
VC:\u005cUsers\u005cAnirudh\u005cAnaconda2\u005clib\u005csite-packages\u005cmatplotlib\u005cmpl-data\u005cfonts\u005cttf\u005cSTIXNonUniBolIta.ttf
p139
sg20
g21
sbag1
(g8
g3
NtRp140
(dp141
g11
g12
sg13
VSTIXSizeFiveSym
p142
sg15
I400
sg16
g12
sg17
g12
sg18
VC:\u005cUsers\u005cAnirudh\u005cAnaconda2\u005clib\u005csite-packages\u005cmatplotlib\u005cmpl-data\u005cfonts\u005cttf\u005cSTIXSizFiveSymReg.ttf
p143
sg20
g21
sbag1
(g8
g3
NtRp144
(dp145
g11
g12
sg13
Vcmmi10
p146
sg15
I400
sg16
g12
sg17
g12
sg18
VC:\u005cUsers\u005cAnirudh\u005cAnaconda2\u005clib\u005csite-packages\u005cmatplotlib\u005cmpl-data\u005cfonts\u005cttf\u005ccmmi10.ttf
p147
sg20
g21
sbag1
(g8
g3
NtRp148
(dp149
g11
g37
sg13
VBitstream Vera Sans Mono
p150
sg15
I700
sg16
g12
sg17
g12
sg18
VC:\u005cUsers\u005cAnirudh\u005cAnaconda2\u005clib\u005csite-packages\u005cmatplotlib\u005cmpl-data\u005cfonts\u005cttf\u005cVeraMoBI.ttf
p151
sg20
g21
sbag1
(g8
g3
NtRp152
(dp153
g11
g12
sg13
VSTIXSizeFourSym
p154
sg15
I400
sg16
g12
sg17
g12
sg18
VC:\u005cUsers\u005cAnirudh\u005cAnaconda2\u005clib\u005csite-packages\u005cmatplotlib\u005cmpl-data\u005cfonts\u005cttf\u005cSTIXSizFourSymReg.ttf
p155
sg20
g21
sbag1
(g8
g3
NtRp156
(dp157
g11
g24
sg13
VGaramond
p158
sg15
I400
sg16
g12
sg17
g12
sg18
VC:\u005cWINDOWS\u005cFonts\u005cGARAIT.TTF
p159
sg20
g21
sbag1
(g8
g3
NtRp160
(dp161
g11
g24
sg13
VHigh Tower Text
p162
sg15
I400
sg16
g12
sg17
g12
sg18
VC:\u005cWINDOWS\u005cFonts\u005cHTOWERTI.TTF
p163
sg20
g21
sbag1
(g8
g3
NtRp164
(dp165
g11
g12
sg13
VFootlight MT Light
p166
sg15
I200
sg16
g12
sg17
g12
sg18
Vc:\u005cwindows\u005cfonts\u005cftltlt.ttf
p167
sg20
g21
sbag1
(g8
g3
NtRp168
(dp169
g11
g24
sg13
VComic Sans MS
p170
sg15
I400
sg16
g12
sg17
g12
sg18
VC:\u005cWINDOWS\u005cFonts\u005ccomici.ttf
p171
sg20
g21
sbag1
(g8
g3
NtRp172
(dp173
g11
g12
sg13
VCambria
p174
sg15
I700
sg16
g12
sg17
g12
sg18
Vc:\u005cwindows\u005cfonts\u005ccambriab.ttf
p175
sg20
g21
sbag1
(g8
g3
NtRp176
(dp177
g11
g12
sg13
VDejaVu Serif
p178
sg15
I700
sg16
Vcondensed
p179
sg17
g12
sg18
VC:\u005cWINDOWS\u005cFonts\u005cDejaVuSerifCondensed-Bold.ttf
p180
sg20
g21
sbag1
(g8
g3
NtRp181
(dp182
g11
g24
sg13
VBook Antiqua
p183
sg15
I400
sg16
g12
sg17
g12
sg18
VC:\u005cWINDOWS\u005cFonts\u005cANTQUAI.TTF
p184
sg20
g21
sbag1
(g8
g3
NtRp185
(dp186
g11
g12
sg13
VTrebuchet MS
p187
sg15
I700
sg16
g12
sg17
g12
sg18
Vc:\u005cwindows\u005cfonts\u005ctrebucbd.ttf
p188
sg20
g21
sbag1
(g8
g3
NtRp189
(dp190
g11
g12
sg13
VSegoe Marker
p191
sg15
I400
sg16
g12
sg17
g12
sg18
Vc:\u005cwindows\u005cfonts\u005csegoemarker.ttf
p192
sg20
g21
sbag1
(g8
g3
NtRp193
(dp194
g11
g24
sg13
VBell MT
p195
sg15
I400
sg16
g12
sg17
g12
sg18
Vc:\u005cwindows\u005cfonts\u005cbelli.ttf
p196
sg20
g21
sbag1
(g8
g3
NtRp197
(dp198
g11
g24
sg13
VBodoni MT
p199
sg15
I900
sg16
g12
sg17
g12
sg18
Vc:\u005cwindows\u005cfonts\u005cbod_blai.ttf
p200
sg20
g21
sbag1
(g8
g3
NtRp201
(dp202
g11
g12
sg13
VRockwell Extra Bold
p203
sg15
I700
sg16
g12
sg17
g12
sg18
VC:\u005cWINDOWS\u005cFonts\u005cROCKEB.TTF
p204
sg20
g21
sbag1
(g8
g3
NtRp205
(dp206
g11
g12
sg13
VSource Code Pro
p207
sg15
I400
sg16
g12
sg17
g12
sg18
VC:\u005cWINDOWS\u005cFonts\u005cSourceCodePro-Regular.ttf
p208
sg20
g21
sbag1
(g8
g3
NtRp209
(dp210
g11
g12
sg13
VOpenSymbol
p211
sg15
I400
sg16
g12
sg17
g12
sg18
VC:\u005cWINDOWS\u005cFonts\u005copens___.ttf
p212
sg20
g21
sbag1
(g8
g3
NtRp213
(dp214
g11
g24
sg13
VTrebuchet MS
p215
sg15
I700
sg16
g12
sg17
g12
sg18
VC:\u005cWINDOWS\u005cFonts\u005ctrebucbi.ttf
p216
sg20
g21
sbag1
(g8
g3
NtRp217
(dp218
g11
g12
sg13
VCentury Gothic
p219
sg15
I400
sg16
g12
sg17
g12
sg18
VC:\u005cWINDOWS\u005cFonts\u005cGOTHIC.TTF
p220
sg20
g21
sbag1
(g8
g3
NtRp221
(dp222
g11
g12
sg13
VKozuka Gothic Pro
p223
sg15
I400
sg16
g12
sg17
g12
sg18
VC:\u005cWINDOWS\u005cFonts\u005cKozGoPro-ExtraLight.otf
p224
sg20
g21
sbag1
(g8
g3
NtRp225
(dp226
g11
g12
sg13
VMyriad Pro
p227
sg15
I400
sg16
g179
sg17
g12
sg18
VC:\u005cWINDOWS\u005cFonts\u005cMyriadPro-Cond.otf
p228
sg20
g21
sbag1
(g8
g3
NtRp229
(dp230
g11
g12
sg13
VMicrosoft Sans Serif
p231
sg15
I400
sg16
g12
sg17
g12
sg18
VC:\u005cWINDOWS\u005cFonts\u005cmicross.ttf
p232
sg20
g21
sbag1
(g8
g3
NtRp233
(dp234
g11
g12
sg13
VCharlemagne Std
p235
sg15
I700
sg16
g12
sg17
g12
sg18
Vc:\u005cwindows\u005cfonts\u005ccharlemagnestd-bold.otf
p236
sg20
g21
sbag1
(g8
g3
NtRp237
(dp238
g11
g12
sg13
VRockwell Condensed
p239
sg15
I700
sg16
g179
sg17
g12
sg18
VC:\u005cWINDOWS\u005cFonts\u005cROCCB___.TTF
p240
sg20
g21
sbag1
(g8
g3
NtRp241
(dp242
g11
g24
sg13
VCooper Std
p243
sg15
I900
sg16
g12
sg17
g12
sg18
Vc:\u005cwindows\u005cfonts\u005ccooperblackstd-italic.otf
p244
sg20
g21
sbag1
(g8
g3
NtRp245
(dp246
g11
g12
sg13
VAdobe Caslon Pro
p247
sg15
I700
sg16
g12
sg17
g12
sg18
Vc:\u005cwindows\u005cfonts\u005cacaslonpro-bold.otf
p248
sg20
g21
sbag1
(g8
g3
NtRp249
(dp250
g11
g12
sg13
VMicrosoft Tai Le
p251
sg15
I700
sg16
g12
sg17
g12
sg18
Vc:\u005cwindows\u005cfonts\u005ctaileb.ttf
p252
sg20
g21
sbag1
(g8
g3
NtRp253
(dp254
g11
g12
sg13
VFranklin Gothic Demi
p255
sg15
I600
sg16
g12
sg17
g12
sg18
Vc:\u005cwindows\u005cfonts\u005cfradm.ttf
p256
sg20
g21
sbag1
(g8
g3
NtRp257
(dp258
g11
g12
sg13
VMonotype Corsiva
p259
sg15
I400
sg16
g12
sg17
g12
sg18
Vc:\u005cwindows\u005cfonts\u005cmtcorsva.ttf
p260
sg20
g21
sbag1
(g8
g3
NtRp261
(dp262
g11
g24
sg13
VSegoe UI
p263
sg15
I700
sg16
g12
sg17
g12
sg18
Vc:\u005cwindows\u005cfonts\u005csegoeuiz.ttf
p264
sg20
g21
sbag1
(g8
g3
NtRp265
(dp266
g11
g12
sg13
VBodoni MT
p267
sg15
I400
sg16
g179
sg17
g12
sg18
Vc:\u005cwindows\u005cfonts\u005cbod_cr.ttf
p268
sg20
g21
sbag1
(g8
g3
NtRp269
(dp270
g11
g24
sg13
VDejaVu Serif
p271
sg15
I400
sg16
g179
sg17
g12
sg18
VC:\u005cWINDOWS\u005cFonts\u005cDejaVuSerifCondensed-Italic.ttf
p272
sg20
g21
sbag1
(g8
g3
NtRp273
(dp274
g11
g24
sg13
VBodoni MT
p275
sg15
I700
sg16
g12
sg17
g12
sg18
Vc:\u005cwindows\u005cfonts\u005cbod_bi.ttf
p276
sg20
g21
sbag1
(g8
g3
NtRp277
(dp278
g11
g24
sg13
VGill Sans MT
p279
sg15
I400
sg16
g12
sg17
g12
sg18
Vc:\u005cwindows\u005cfonts\u005cgili____.ttf
p280
sg20
g21
sbag1
(g8
g3
NtRp281
(dp282
g11
g24
sg13
VSegoe UI
p283
sg15
I400
sg16
g12
sg17
g12
sg18
Vc:\u005cwindows\u005cfonts\u005cseguibli.ttf
p284
sg20
g21
sbag1
(g8
g3
NtRp285
(dp286
g11
g12
sg13
VMinion Pro
p287
sg15
I700
sg16
g179
sg17
g12
sg18
VC:\u005cWINDOWS\u005cFonts\u005cMinionPro-BoldCn.otf
p288
sg20
g21
sbag1
(g8
g3
NtRp289
(dp290
g11
g12
sg13
VImprint MT Shadow
p291
sg15
I400
sg16
g12
sg17
g12
sg18
Vc:\u005cwindows\u005cfonts\u005cimprisha.ttf
p292
sg20
g21
sbag1
(g8
g3
NtRp293
(dp294
g11
g12
sg13
VPT Serif
p295
sg15
I400
sg16
g12
sg17
g12
sg18
Vc:\u005cwindows\u005cfonts\u005cpt_serif-web-regular.ttf
p296
sg20
g21
sbag1
(g8
g3
NtRp297
(dp298
g11
g12
sg13
VGentium Basic
p299
sg15
I700
sg16
g12
sg17
g12
sg18
VC:\u005cWINDOWS\u005cFonts\u005cGenBasB.ttf
p300
sg20
g21
sbag1
(g8
g3
NtRp301
(dp302
g11
g12
sg13
VPT Serif
p303
sg15
I700
sg16
g12
sg17
g12
sg18
Vc:\u005cwindows\u005cfonts\u005cpt_serif-web-bold.ttf
p304
sg20
g21
sbag1
(g8
g3
NtRp305
(dp306
g11
g24
sg13
VArial
p307
sg15
I400
sg16
g12
sg17
g12
sg18
Vc:\u005cwindows\u005cfonts\u005cariali.ttf
p308
sg20
g21
sbag1
(g8
g3
NtRp309
(dp310
g11
g24
sg13
VSegoe UI
p311
sg15
I400
sg16
g12
sg17
g12
sg18
Vc:\u005cwindows\u005cfonts\u005cseguisbi.ttf
p312
sg20
g21
sbag1
(g8
g3
NtRp313
(dp314
g11
g24
sg13
VFranklin Gothic Demi
p315
sg15
I600
sg16
g12
sg17
g12
sg18
VC:\u005cWINDOWS\u005cFonts\u005cFRADMIT.TTF
p316
sg20
g21
sbag1
(g8
g3
NtRp317
(dp318
g11
g12
sg13
VMagneto
p319
sg15
I700
sg16
g12
sg17
g12
sg18
Vc:\u005cwindows\u005cfonts\u005cmagnetob.ttf
p320
sg20
g21
sbag1
(g8
g3
NtRp321
(dp322
g11
g12
sg13
VTw Cen MT Condensed
p323
sg15
I700
sg16
g179
sg17
g12
sg18
Vc:\u005cwindows\u005cfonts\u005ctccb____.ttf
p324
sg20
g21
sbag1
(g8
g3
NtRp325
(dp326
g11
g24
sg13
VGentium Book Basic
p327
sg15
I700
sg16
g12
sg17
g12
sg18
Vc:\u005cwindows\u005cfonts\u005cgenbkbasbi.ttf
p328
sg20
g21
sbag1
(g8
g3
NtRp329
(dp330
g11
g24
sg13
VLiberation Sans Narrow
p331
sg15
I400
sg16
g179
sg17
g12
sg18
VC:\u005cWINDOWS\u005cFonts\u005cLiberationSansNarrow-Italic.ttf
p332
sg20
g21
sbag1
(g8
g3
NtRp333
(dp334
g11
g12
sg13
VSegoe UI
p335
sg15
I400
sg16
g12
sg17
g12
sg18
Vc:\u005cwindows\u005cfonts\u005cseguisb.ttf
p336
sg20
g21
sbag1
(g8
g3
NtRp337
(dp338
g11
g12
sg13
VSegoe WP
p339
sg15
I400
sg16
g12
sg17
g12
sg18
VC:\u005cWINDOWS\u005cFonts\u005cSegoeWP-Light.ttf
p340
sg20
g21
sbag1
(g8
g3
NtRp341
(dp342
g11
g24
sg13
VOpen Sans
p343
sg15
I400
sg16
g12
sg17
g12
sg18
Vc:\u005cwindows\u005cfonts\u005copensans-italic.ttf
p344
sg20
g21
sbag1
(g8
g3
NtRp345
(dp346
g11
g24
sg13
VMyriad Pro
p347
sg15
I700
sg16
g12
sg17
g12
sg18
VC:\u005cWINDOWS\u005cFonts\u005cMyriadPro-BoldIt.otf
p348
sg20
g21
sbag1
(g8
g3
NtRp349
(dp350
g11
g24
sg13
VMyriad Pro
p351
sg15
I700
sg16
g179
sg17
g12
sg18
VC:\u005cWINDOWS\u005cFonts\u005cMyriadPro-BoldCondIt.otf
p352
sg20
g21
sbag1
(g8
g3
NtRp353
(dp354
g11
g12
sg13
VLiberation Serif
p355
sg15
I400
sg16
g12
sg17
g12
sg18
Vc:\u005cwindows\u005cfonts\u005cliberationserif-regular.ttf
p356
sg20
g21
sbag1
(g8
g3
NtRp357
(dp358
g11
g24
sg13
VGeorgia
p359
sg15
I700
sg16
g12
sg17
g12
sg18
VC:\u005cWINDOWS\u005cFonts\u005cgeorgiaz.ttf
p360
sg20
g21
sbag1
(g8
g3
NtRp361
(dp362
g11
g24
sg13
VGentium Book Basic
p363
sg15
I700
sg16
g12
sg17
g12
sg18
VC:\u005cWINDOWS\u005cFonts\u005cGenBkBasBI.ttf
p364
sg20
g21
sbag1
(g8
g3
NtRp365
(dp366
g11
g12
sg13
VDejaVu Serif
p367
sg15
I400
sg16
g179
sg17
g12
sg18
VC:\u005cWINDOWS\u005cFonts\u005cDejaVuSerifCondensed.ttf
p368
sg20
g21
sbag1
(g8
g3
NtRp369
(dp370
g11
g12
sg13
VConstantia
p371
sg15
I700
sg16
g12
sg17
g12
sg18
VC:\u005cWINDOWS\u005cFonts\u005cconstanb.ttf
p372
sg20
g21
sbag1
(g8
g3
NtRp373
(dp374
g11
g12
sg13
VMyriad Pro
p375
sg15
I700
sg16
g12
sg17
g12
sg18
VC:\u005cWINDOWS\u005cFonts\u005cMyriadPro-Bold.otf
p376
sg20
g21
sbag1
(g8
g3
NtRp377
(dp378
g11
g12
sg13
VGill Sans MT
p379
sg15
I400
sg16
g12
sg17
g12
sg18
VC:\u005cWINDOWS\u005cFonts\u005cGIL_____.TTF
p380
sg20
g21
sbag1
(g8
g3
NtRp381
(dp382
g11
g24
sg13
VOrator Std
p383
sg15
I400
sg16
g12
sg17
g12
sg18
Vc:\u005cwindows\u005cfonts\u005coratorstd-slanted.otf
p384
sg20
g21
sbag1
(g8
g3
NtRp385
(dp386
g11
g12
sg13
VDejaVu Serif
p387
sg15
I700
sg16
g12
sg17
g12
sg18
Vc:\u005cwindows\u005cfonts\u005cdejavuserif-bold.ttf
p388
sg20
g21
sbag1
(g8
g3
NtRp389
(dp390
g11
g12
sg13
VLithos Pro
p391
sg15
I900
sg16
g12
sg17
g12
sg18
VC:\u005cWINDOWS\u005cFonts\u005cLithosPro-Black.otf
p392
sg20
g21
sbag1
(g8
g3
NtRp393
(dp394
g11
g24
sg13
VDejaVu Serif
p395
sg15
I400
sg16
g179
sg17
g12
sg18
Vc:\u005cwindows\u005cfonts\u005cdejavuserifcondensed-italic.ttf
p396
sg20
g21
sbag1
(g8
g3
NtRp397
(dp398
g11
g12
sg13
VFreestyle Script
p399
sg15
I400
sg16
g12
sg17
g12
sg18
VC:\u005cWINDOWS\u005cFonts\u005cFREESCPT.TTF
p400
sg20
g21
sbag1
(g8
g3
NtRp401
(dp402
g11
g12
sg13
VTahoma
p403
sg15
I700
sg16
g12
sg17
g12
sg18
Vc:\u005cwindows\u005cfonts\u005ctahomabd.ttf
p404
sg20
g21
sbag1
(g8
g3
NtRp405
(dp406
g11
g12
sg13
VKozuka Mincho Pro
p407
sg15
I400
sg16
g12
sg17
g12
sg18
Vc:\u005cwindows\u005cfonts\u005ckozminpro-medium.otf
p408
sg20
g21
sbag1
(g8
g3
NtRp409
(dp410
g11
g12
sg13
VLiberation Sans
p411
sg15
I400
sg16
g12
sg17
g12
sg18
VC:\u005cWINDOWS\u005cFonts\u005cLiberationSans-Regular.ttf
p412
sg20
g21
sbag1
(g8
g3
NtRp413
(dp414
g11
g12
sg13
VKozuka Mincho Pr6N
p415
sg15
I400
sg16
g12
sg17
g12
sg18
Vc:\u005cwindows\u005cfonts\u005ckozminpr6n-medium.otf
p416
sg20
g21
sbag1
(g8
g3
NtRp417
(dp418
g11
g24
sg13
VCalifornian FB
p419
sg15
I400
sg16
g12
sg17
g12
sg18
Vc:\u005cwindows\u005cfonts\u005ccalifi.ttf
p420
sg20
g21
sbag1
(g8
g3
NtRp421
(dp422
g11
g12
sg13
VKunstler Script
p423
sg15
I400
sg16
g12
sg17
g12
sg18
Vc:\u005cwindows\u005cfonts\u005ckunstler.ttf
p424
sg20
g21
sbag1
(g8
g3
NtRp425
(dp426
g11
g12
sg13
VDejaVu Sans
p427
sg15
I700
sg16
g179
sg17
g12
sg18
Vc:\u005cwindows\u005cfonts\u005cdejavusanscondensed-bold.ttf
p428
sg20
g21
sbag1
(g8
g3
NtRp429
(dp430
g11
g12
sg13
VConsolas
p431
sg15
I400
sg16
g12
sg17
g12
sg18
Vc:\u005cwindows\u005cfonts\u005cconsola.ttf
p432
sg20
g21
sbag1
(g8
g3
NtRp433
(dp434
g11
g12
sg13
VCurlz MT
p435
sg15
I400
sg16
g12
sg17
g12
sg18
VC:\u005cWINDOWS\u005cFonts\u005cCURLZ___.TTF
p436
sg20
g21
sbag1
(g8
g3
NtRp437
(dp438
g11
g24
sg13
VGill Sans MT
p439
sg15
I700
sg16
g12
sg17
g12
sg18
Vc:\u005cwindows\u005cfonts\u005cgilbi___.ttf
p440
sg20
g21
sbag1
(g8
g3
NtRp441
(dp442
g11
g24
sg13
VPerpetua
p443
sg15
I700
sg16
g12
sg17
g12
sg18
VC:\u005cWINDOWS\u005cFonts\u005cPERBI___.TTF
p444
sg20
g21
sbag1
(g8
g3
NtRp445
(dp446
g11
g12
sg13
VDejaVu Sans
p447
sg15
I700
sg16
g179
sg17
g12
sg18
VC:\u005cWINDOWS\u005cFonts\u005cDejaVuSansCondensed-Bold.ttf
p448
sg20
g21
sbag1
(g8
g3
NtRp449
(dp450
g11
g12
sg13
VParchment
p451
sg15
I400
sg16
g12
sg17
g12
sg18
VC:\u005cWINDOWS\u005cFonts\u005cPARCHM.TTF
p452
sg20
g21
sbag1
(g8
g3
NtRp453
(dp454
g11
g12
sg13
VMicrosoft Tai Le
p455
sg15
I400
sg16
g12
sg17
g12
sg18
VC:\u005cWINDOWS\u005cFonts\u005ctaile.ttf
p456
sg20
g21
sbag1
(g8
g3
NtRp457
(dp458
g11
g12
sg13
VArial
p459
sg15
I700
sg16
g12
sg17
g12
sg18
Vc:\u005cwindows\u005cfonts\u005carialbd.ttf
p460
sg20
g21
sbag1
(g8
g3
NtRp461
(dp462
g11
g12
sg13
VMinion Pro
p463
sg15
I700
sg16
g12
sg17
g12
sg18
VC:\u005cWINDOWS\u005cFonts\u005cMinionPro-Semibold.otf
p464
sg20
g21
sbag1
(g8
g3
NtRp465
(dp466
g11
g12
sg13
VBerlin Sans FB
p467
sg15
I400
sg16
g12
sg17
g12
sg18
VC:\u005cWINDOWS\u005cFonts\u005cBRLNSR.TTF
p468
sg20
g21
sbag1
(g8
g3
NtRp469
(dp470
g11
g12
sg13
VSource Sans Pro
p471
sg15
I400
sg16
g12
sg17
g12
sg18
VC:\u005cWINDOWS\u005cFonts\u005cSourceSansPro-Regular.ttf
p472
sg20
g21
sbag1
(g8
g3
NtRp473
(dp474
g11
g12
sg13
VSnap ITC
p475
sg15
I400
sg16
g12
sg17
g12
sg18
VC:\u005cWINDOWS\u005cFonts\u005cSNAP____.TTF
p476
sg20
g21
sbag1
(g8
g3
NtRp477
(dp478
g11
g12
sg13
VBodoni MT
p479
sg15
I400
sg16
g179
sg17
g12
sg18
VC:\u005cWINDOWS\u005cFonts\u005cBOD_CR.TTF
p480
sg20
g21
sbag1
(g8
g3
NtRp481
(dp482
g11
g12
sg13
VMicrosoft New Tai Lue
p483
sg15
I400
sg16
g12
sg17
g12
sg18
Vc:\u005cwindows\u005cfonts\u005cntailu.ttf
p484
sg20
g21
sbag1
(g8
g3
NtRp485
(dp486
g11
g24
sg13
VVerdana
p487
sg15
I700
sg16
g12
sg17
g12
sg18
Vc:\u005cwindows\u005cfonts\u005cverdanaz.ttf
p488
sg20
g21
sbag1
(g8
g3
NtRp489
(dp490
g11
g12
sg13
VLucida Fax
p491
sg15
I700
sg16
g12
sg17
g12
sg18
Vc:\u005cwindows\u005cfonts\u005clfaxd.ttf
p492
sg20
g21
sbag1
(g8
g3
NtRp493
(dp494
g11
g12
sg13
VAdobe Hebrew
p495
sg15
I400
sg16
g12
sg17
g12
sg18
VC:\u005cWINDOWS\u005cFonts\u005cAdobeHebrew-Regular.otf
p496
sg20
g21
sbag1
(g8
g3
NtRp497
(dp498
g11
g24
sg13
VGeorgia
p499
sg15
I400
sg16
g12
sg17
g12
sg18
VC:\u005cWINDOWS\u005cFonts\u005cgeorgiai.ttf
p500
sg20
g21
sbag1
(g8
g3
NtRp501
(dp502
g11
g24
sg13
VBodoni MT
p503
sg15
I400
sg16
g12
sg17
g12
sg18
VC:\u005cWINDOWS\u005cFonts\u005cBOD_I.TTF
p504
sg20
g21
sbag1
(g8
g3
NtRp505
(dp506
g11
g12
sg13
VMaiandra GD
p507
sg15
I400
sg16
g12
sg17
g12
sg18
Vc:\u005cwindows\u005cfonts\u005cmaian.ttf
p508
sg20
g21
sbag1
(g8
g3
NtRp509
(dp510
g11
g24
sg13
VFranklin Gothic Book
p511
sg15
I400
sg16
g12
sg17
g12
sg18
Vc:\u005cwindows\u005cfonts\u005cfrabkit.ttf
p512
sg20
g21
sbag1
(g8
g3
NtRp513
(dp514
g11
g24
sg13
VConstantia
p515
sg15
I400
sg16
g12
sg17
g12
sg18
VC:\u005cWINDOWS\u005cFonts\u005cconstani.ttf
p516
sg20
g21
sbag1
(g8
g3
NtRp517
(dp518
g11
g12
sg13
VGill Sans MT Condensed
p519
sg15
I400
sg16
g179
sg17
g12
sg18
VC:\u005cWINDOWS\u005cFonts\u005cGILC____.TTF
p520
sg20
g21
sbag1
(g8
g3
NtRp521
(dp522
g11
g12
sg13
VSegoe UI Emoji
p523
sg15
I400
sg16
g12
sg17
g12
sg18
VC:\u005cWINDOWS\u005cFonts\u005cseguiemj.ttf
p524
sg20
g21
sbag1
(g8
g3
NtRp525
(dp526
g11
g12
sg13
VSegoe UI
p527
sg15
I400
sg16
g12
sg17
g12
sg18
Vc:\u005cwindows\u005cfonts\u005csegoeui.ttf
p528
sg20
g21
sbag1
(g8
g3
NtRp529
(dp530
g11
g12
sg13
VTw Cen MT Condensed
p531
sg15
I400
sg16
g179
sg17
g12
sg18
VC:\u005cWINDOWS\u005cFonts\u005cTCCM____.TTF
p532
sg20
g21
sbag1
(g8
g3
NtRp533
(dp534
g11
g12
sg13
VKozuka Mincho Pro
p535
sg15
I700
sg16
g12
sg17
g12
sg18
Vc:\u005cwindows\u005cfonts\u005ckozminpro-heavy.otf
p536
sg20
g21
sbag1
(g8
g3
NtRp537
(dp538
g11
g12
sg13
VLinux Libertine Display G
p539
sg15
I400
sg16
g12
sg17
g12
sg18
Vc:\u005cwindows\u005cfonts\u005clinlibertine_dr_g.ttf
p540
sg20
g21
sbag1
(g8
g3
NtRp541
(dp542
g11
g24
sg13
VBook Antiqua
p543
sg15
I700
sg16
g12
sg17
g12
sg18
Vc:\u005cwindows\u005cfonts\u005cantquabi.ttf
p544
sg20
g21
sbag1
(g8
g3
NtRp545
(dp546
g11
g12
sg13
VLinux Libertine G
p547
sg15
I400
sg16
g12
sg17
g12
sg18
VC:\u005cWINDOWS\u005cFonts\u005cLinLibertine_R_G.ttf
p548
sg20
g21
sbag1
(g8
g3
NtRp549
(dp550
g11
g12
sg13
VAdobe Arabic
p551
sg15
I700
sg16
g12
sg17
g12
sg18
VC:\u005cWINDOWS\u005cFonts\u005cAdobeArabic-Bold.otf
p552
sg20
g21
sbag1
(g8
g3
NtRp553
(dp554
g11
g12
sg13
VCorbel
p555
sg15
I700
sg16
g12
sg17
g12
sg18
Vc:\u005cwindows\u005cfonts\u005ccorbelb.ttf
p556
sg20
g21
sbag1
(g8
g3
NtRp557
(dp558
g11
g12
sg13
VKozuka Mincho Pro
p559
sg15
I400
sg16
g12
sg17
g12
sg18
Vc:\u005cwindows\u005cfonts\u005ckozminpro-extralight.otf
p560
sg20
g21
sbag1
(g8
g3
NtRp561
(dp562
g11
g12
sg13
VCalifornian FB
p563
sg15
I700
sg16
g12
sg17
g12
sg18
Vc:\u005cwindows\u005cfonts\u005ccalifb.ttf
p564
sg20
g21
sbag1
(g8
g3
NtRp565
(dp566
g11
g12
sg13
VCastellar
p567
sg15
I400
sg16
g12
sg17
g12
sg18
VC:\u005cWINDOWS\u005cFonts\u005cCASTELAR.TTF
p568
sg20
g21
sbag1
(g8
g3
NtRp569
(dp570
g11
g12
sg13
VLetter Gothic Std
p571
sg15
I700
sg16
g12
sg17
g12
sg18
VC:\u005cWINDOWS\u005cFonts\u005cLetterGothicStd-Bold.otf
p572
sg20
g21
sbag1
(g8
g3
NtRp573
(dp574
g11
g12
sg13
VChiller
p575
sg15
I400
sg16
g12
sg17
g12
sg18
VC:\u005cWINDOWS\u005cFonts\u005cCHILLER.TTF
p576
sg20
g21
sbag1
(g8
g3
NtRp577
(dp578
g11
g12
sg13
VInformal Roman
p579
sg15
I500
sg16
g12
sg17
g12
sg18
Vc:\u005cwindows\u005cfonts\u005cinfroman.ttf
p580
sg20
g21
sbag1
(g8
g3
NtRp581
(dp582
g11
g12
sg13
VEras Bold ITC
p583
sg15
I700
sg16
g12
sg17
g12
sg18
VC:\u005cWINDOWS\u005cFonts\u005cERASBD.TTF
p584
sg20
g21
sbag1
(g8
g3
NtRp585
(dp586
g11
g12
sg13
VAdobe Naskh
p587
sg15
I500
sg16
g12
sg17
g12
sg18
VC:\u005cWINDOWS\u005cFonts\u005cAdobeNaskh-Medium.otf
p588
sg20
g21
sbag1
(g8
g3
NtRp589
(dp590
g11
g24
sg13
VGentium Book Basic
p591
sg15
I400
sg16
g12
sg17
g12
sg18
VC:\u005cWINDOWS\u005cFonts\u005cGenBkBasI.ttf
p592
sg20
g21
sbag1
(g8
g3
NtRp593
(dp594
g11
g12
sg13
VAgency FB
p595
sg15
I700
sg16
g12
sg17
g12
sg18
Vc:\u005cwindows\u005cfonts\u005cagencyb.ttf
p596
sg20
g21
sbag1
(g8
g3
NtRp597
(dp598
g11
g12
sg13
VPalace Script MT
p599
sg15
I400
sg16
g12
sg17
g12
sg18
VC:\u005cWINDOWS\u005cFonts\u005cPALSCRI.TTF
p600
sg20
g21
sbag1
(g8
g3
NtRp601
(dp602
g11
g12
sg13
VNirmala UI
p603
sg15
I400
sg16
g12
sg17
g12
sg18
Vc:\u005cwindows\u005cfonts\u005cnirmala.ttf
p604
sg20
g21
sbag1
(g8
g3
NtRp605
(dp606
g11
g12
sg13
VCooper Black
p607
sg15
I900
sg16
g12
sg17
g12
sg18
Vc:\u005cwindows\u005cfonts\u005ccoopbl.ttf
p608
sg20
g21
sbag1
(g8
g3
NtRp609
(dp610
g11
g24
sg13
VMinion Pro
p611
sg15
I700
sg16
g12
sg17
g12
sg18
VC:\u005cWINDOWS\u005cFonts\u005cMinionPro-BoldIt.otf
p612
sg20
g21
sbag1
(g8
g3
NtRp613
(dp614
g11
g12
sg13
VKozuka Gothic Pr6N
p615
sg15
I400
sg16
g12
sg17
g12
sg18
Vc:\u005cwindows\u005cfonts\u005ckozgopr6n-extralight.otf
p616
sg20
g21
sbag1
(g8
g3
NtRp617
(dp618
g11
g12
sg13
VAdobe Myungjo Std
p619
sg15
I400
sg16
g12
sg17
g12
sg18
Vc:\u005cwindows\u005cfonts\u005cadobemyungjostd-medium.otf
p620
sg20
g21
sbag1
(g8
g3
NtRp621
(dp622
g11
g12
sg13
VAdobe Song Std
p623
sg15
I400
sg16
g12
sg17
g12
sg18
Vc:\u005cwindows\u005cfonts\u005cadobesongstd-light.otf
p624
sg20
g21
sbag1
(g8
g3
NtRp625
(dp626
g11
g37
sg13
VLucida Sans Typewriter
p627
sg15
I700
sg16
g12
sg17
g12
sg18
Vc:\u005cwindows\u005cfonts\u005cltypebo.ttf
p628
sg20
g21
sbag1
(g8
g3
NtRp629
(dp630
g11
g12
sg13
VLithos Pro
p631
sg15
I400
sg16
g12
sg17
g12
sg18
Vc:\u005cwindows\u005cfonts\u005clithospro-regular.otf
p632
sg20
g21
sbag1
(g8
g3
NtRp633
(dp634
g11
g12
sg13
VImpact
p635
sg15
I400
sg16
g12
sg17
g12
sg18
VC:\u005cWINDOWS\u005cFonts\u005cimpact.ttf
p636
sg20
g21
sbag1
(g8
g3
NtRp637
(dp638
g11
g12
sg13
VPerpetua Titling MT
p639
sg15
I200
sg16
g12
sg17
g12
sg18
VC:\u005cWINDOWS\u005cFonts\u005cPERTILI.TTF
p640
sg20
g21
sbag1
(g8
g3
NtRp641
(dp642
g11
g24
sg13
VLiberation Mono
p643
sg15
I400
sg16
g12
sg17
g12
sg18
VC:\u005cWINDOWS\u005cFonts\u005cLiberationMono-Italic.ttf
p644
sg20
g21
sbag1
(g8
g3
NtRp645
(dp646
g11
g24
sg13
VChaparral Pro
p647
sg15
I400
sg16
g12
sg17
g12
sg18
Vc:\u005cwindows\u005cfonts\u005cchaparralpro-italic.otf
p648
sg20
g21
sbag1
(g8
g3
NtRp649
(dp650
g11
g24
sg13
VSource Sans Pro
p651
sg15
I900
sg16
g12
sg17
g12
sg18
VC:\u005cWINDOWS\u005cFonts\u005cSourceSansPro-BlackIt.ttf
p652
sg20
g21
sbag1
(g8
g3
NtRp653
(dp654
g11
g12
sg13
VMinion Pro
p655
sg15
I700
sg16
g12
sg17
g12
sg18
VC:\u005cWINDOWS\u005cFonts\u005cMinionPro-Bold.otf
p656
sg20
g21
sbag1
(g8
g3
NtRp657
(dp658
g11
g24
sg13
VArial
p659
sg15
I700
sg16
g179
sg17
g12
sg18
VC:\u005cWINDOWS\u005cFonts\u005cARIALNBI.TTF
p660
sg20
g21
sbag1
(g8
g3
NtRp661
(dp662
g11
g12
sg13
VModern No. 20
p663
sg15
I400
sg16
g12
sg17
g12
sg18
Vc:\u005cwindows\u005cfonts\u005cmod20.ttf
p664
sg20
g21
sbag1
(g8
g3
NtRp665
(dp666
g11
g12
sg13
VTrajan Pro
p667
sg15
I700
sg16
g12
sg17
g12
sg18
Vc:\u005cwindows\u005cfonts\u005ctrajanpro-bold.otf
p668
sg20
g21
sbag1
(g8
g3
NtRp669
(dp670
g11
g12
sg13
VKristen ITC
p671
sg15
I400
sg16
g12
sg17
g12
sg18
VC:\u005cWINDOWS\u005cFonts\u005cITCKRIST.TTF
p672
sg20
g21
sbag1
(g8
g3
NtRp673
(dp674
g11
g24
sg13
VSegoe UI
p675
sg15
I400
sg16
g12
sg17
g12
sg18
VC:\u005cWINDOWS\u005cFonts\u005cseguili.ttf
p676
sg20
g21
sbag1
(g8
g3
NtRp677
(dp678
g11
g12
sg13
VCharlemagne Std
p679
sg15
I700
sg16
g12
sg17
g12
sg18
VC:\u005cWINDOWS\u005cFonts\u005cCharlemagneStd-Bold.otf
p680
sg20
g21
sbag1
(g8
g3
NtRp681
(dp682
g11
g12
sg13
VOCR A Extended
p683
sg15
I400
sg16
g12
sg17
g12
sg18
Vc:\u005cwindows\u005cfonts\u005cocraext.ttf
p684
sg20
g21
sbag1
(g8
g3
NtRp685
(dp686
g11
g12
sg13
VCalisto MT
p687
sg15
I700
sg16
g12
sg17
g12
sg18
Vc:\u005cwindows\u005cfonts\u005ccalistb.ttf
p688
sg20
g21
sbag1
(g8
g3
NtRp689
(dp690
g11
g12
sg13
VSegoe UI
p691
sg15
I700
sg16
g12
sg17
g12
sg18
VC:\u005cWINDOWS\u005cFonts\u005csegoeuib.ttf
p692
sg20
g21
sbag1
(g8
g3
NtRp693
(dp694
g11
g24
sg13
VNueva Std
p695
sg15
I700
sg16
g179
sg17
g12
sg18
Vc:\u005cwindows\u005cfonts\u005cnuevastd-boldconditalic.otf
p696
sg20
g21
sbag1
(g8
g3
NtRp697
(dp698
g11
g12
sg13
VOCR A Extended
p699
sg15
I400
sg16
g12
sg17
g12
sg18
VC:\u005cWINDOWS\u005cFonts\u005cOCRAEXT.TTF
p700
sg20
g21
sbag1
(g8
g3
NtRp701
(dp702
g11
g12
sg13
VKozuka Gothic Pr6N
p703
sg15
I700
sg16
g12
sg17
g12
sg18
VC:\u005cWINDOWS\u005cFonts\u005cKozGoPr6N-Heavy.otf
p704
sg20
g21
sbag1
(g8
g3
NtRp705
(dp706
g11
g12
sg13
VMicrosoft NeoGothic
p707
sg15
I400
sg16
g12
sg17
g12
sg18
Vc:\u005cwindows\u005cfonts\u005cmsneogothic.ttf
p708
sg20
g21
sbag1
(g8
g3
NtRp709
(dp710
g11
g24
sg13
VLucida Sans
p711
sg15
I400
sg16
g12
sg17
g12
sg18
Vc:\u005cwindows\u005cfonts\u005clsansi.ttf
p712
sg20
g21
sbag1
(g8
g3
NtRp713
(dp714
g11
g24
sg13
VBodoni MT
p715
sg15
I700
sg16
g12
sg17
g12
sg18
VC:\u005cWINDOWS\u005cFonts\u005cBOD_BI.TTF
p716
sg20
g21
sbag1
(g8
g3
NtRp717
(dp718
g11
g12
sg13
VGabriola
p719
sg15
I400
sg16
g12
sg17
g12
sg18
VC:\u005cWINDOWS\u005cFonts\u005cGabriola.ttf
p720
sg20
g21
sbag1
(g8
g3
NtRp721
(dp722
g11
g12
sg13
VEras Medium ITC
p723
sg15
I500
sg16
g12
sg17
g12
sg18
Vc:\u005cwindows\u005cfonts\u005cerasmd.ttf
p724
sg20
g21
sbag1
(g8
g3
NtRp725
(dp726
g11
g24
sg13
VVerdana
p727
sg15
I400
sg16
g12
sg17
g12
sg18
Vc:\u005cwindows\u005cfonts\u005cverdanai.ttf
p728
sg20
g21
sbag1
(g8
g3
NtRp729
(dp730
g11
g24
sg13
VCandara
p731
sg15
I700
sg16
g12
sg17
g12
sg18
VC:\u005cWINDOWS\u005cFonts\u005cCandaraz.ttf
p732
sg20
g21
sbag1
(g8
g3
NtRp733
(dp734
g11
g12
sg13
VKozuka Mincho Pr6N
p735
sg15
I400
sg16
g12
sg17
g12
sg18
VC:\u005cWINDOWS\u005cFonts\u005cKozMinPr6N-Regular.otf
p736
sg20
g21
sbag1
(g8
g3
NtRp737
(dp738
g11
g12
sg13
VWebdings
p739
sg15
I400
sg16
g12
sg17
g12
sg18
VC:\u005cWINDOWS\u005cFonts\u005cwebdings.ttf
p740
sg20
g21
sbag1
(g8
g3
NtRp741
(dp742
g11
g24
sg13
VAdobe Caslon Pro
p743
sg15
I700
sg16
g12
sg17
g12
sg18
VC:\u005cWINDOWS\u005cFonts\u005cACaslonPro-BoldItalic.otf
p744
sg20
g21
sbag1
(g8
g3
NtRp745
(dp746
g11
g24
sg13
VFranklin Gothic Demi
p747
sg15
I600
sg16
g12
sg17
g12
sg18
Vc:\u005cwindows\u005cfonts\u005cfradmit.ttf
p748
sg20
g21
sbag1
(g8
g3
NtRp749
(dp750
g11
g12
sg13
VPalatino Linotype
p751
sg15
I400
sg16
g12
sg17
g12
sg18
VC:\u005cWINDOWS\u005cFonts\u005cpala.ttf
p752
sg20
g21
sbag1
(g8
g3
NtRp753
(dp754
g11
g12
sg13
VKozuka Mincho Pr6N
p755
sg15
I400
sg16
g12
sg17
g12
sg18
Vc:\u005cwindows\u005cfonts\u005ckozminpr6n-extralight.otf
p756
sg20
g21
sbag1
(g8
g3
NtRp757
(dp758
g11
g24
sg13
VMyriad Hebrew
p759
sg15
I700
sg16
g12
sg17
g12
sg18
Vc:\u005cwindows\u005cfonts\u005cmyriadhebrew-boldit.otf
p760
sg20
g21
sbag1
(g8
g3
NtRp761
(dp762
g11
g24
sg13
VBodoni MT
p763
sg15
I700
sg16
g179
sg17
g12
sg18
VC:\u005cWINDOWS\u005cFonts\u005cBOD_CBI.TTF
p764
sg20
g21
sbag1
(g8
g3
NtRp765
(dp766
g11
g24
sg13
VCalisto MT
p767
sg15
I700
sg16
g12
sg17
g12
sg18
VC:\u005cWINDOWS\u005cFonts\u005cCALISTBI.TTF
p768
sg20
g21
sbag1
(g8
g3
NtRp769
(dp770
g11
g12
sg13
VSymbol
p771
sg15
I400
sg16
g12
sg17
g12
sg18
Vc:\u005cwindows\u005cfonts\u005csymbol.ttf
p772
sg20
g21
sbag1
(g8
g3
NtRp773
(dp774
g11
g12
sg13
VMonotype Corsiva
p775
sg15
I400
sg16
g12
sg17
g12
sg18
VC:\u005cWINDOWS\u005cFonts\u005cMTCORSVA.TTF
p776
sg20
g21
sbag1
(g8
g3
NtRp777
(dp778
g11
g12
sg13
VSegoe Print
p779
sg15
I700
sg16
g12
sg17
g12
sg18
VC:\u005cWINDOWS\u005cFonts\u005csegoeprb.ttf
p780
sg20
g21
sbag1
(g8
g3
NtRp781
(dp782
g11
g12
sg13
VKozuka Mincho Pr6N
p783
sg15
I400
sg16
g12
sg17
g12
sg18
Vc:\u005cwindows\u005cfonts\u005ckozminpr6n-regular.otf
p784
sg20
g21
sbag1
(g8
g3
NtRp785
(dp786
g11
g12
sg13
VSylfaen
p787
sg15
I400
sg16
g12
sg17
g12
sg18
Vc:\u005cwindows\u005cfonts\u005csylfaen.ttf
p788
sg20
g21
sbag1
(g8
g3
NtRp789
(dp790
g11
g12
sg13
VKozuka Gothic Pr6N
p791
sg15
I700
sg16
g12
sg17
g12
sg18
VC:\u005cWINDOWS\u005cFonts\u005cKozGoPr6N-Bold.otf
p792
sg20
g21
sbag1
(g8
g3
NtRp793
(dp794
g11
g12
sg13
VRockwell Condensed
p795
sg15
I700
sg16
g179
sg17
g12
sg18
Vc:\u005cwindows\u005cfonts\u005croccb___.ttf
p796
sg20
g21
sbag1
(g8
g3
NtRp797
(dp798
g11
g24
sg13
VMyriad Pro
p799
sg15
I400
sg16
g12
sg17
g12
sg18
Vc:\u005cwindows\u005cfonts\u005cmyriadpro-it.otf
p800
sg20
g21
sbag1
(g8
g3
NtRp801
(dp802
g11
g24
sg13
VCentury Schoolbook
p803
sg15
I700
sg16
g12
sg17
g12
sg18
VC:\u005cWINDOWS\u005cFonts\u005cSCHLBKBI.TTF
p804
sg20
g21
sbag1
(g8
g3
NtRp805
(dp806
g11
g12
sg13
VArial
p807
sg15
I400
sg16
g12
sg17
g12
sg18
VC:\u005cWINDOWS\u005cFonts\u005carial.ttf
p808
sg20
g21
sbag1
(g8
g3
NtRp809
(dp810
g11
g12
sg13
VAdobe Hebrew
p811
sg15
I400
sg16
g12
sg17
g12
sg18
Vc:\u005cwindows\u005cfonts\u005cadobehebrew-regular.otf
p812
sg20
g21
sbag1
(g8
g3
NtRp813
(dp814
g11
g12
sg13
VGentium Basic
p815
sg15
I700
sg16
g12
sg17
g12
sg18
Vc:\u005cwindows\u005cfonts\u005cgenbasb.ttf
p816
sg20
g21
sbag1
(g8
g3
NtRp817
(dp818
g11
g24
sg13
VGill Sans MT
p819
sg15
I700
sg16
g12
sg17
g12
sg18
VC:\u005cWINDOWS\u005cFonts\u005cGILBI___.TTF
p820
sg20
g21
sbag1
(g8
g3
NtRp821
(dp822
g11
g12
sg13
VDejaVu Sans
p823
sg15
I400
sg16
g179
sg17
g12
sg18
VC:\u005cWINDOWS\u005cFonts\u005cDejaVuSansCondensed.ttf
p824
sg20
g21
sbag1
(g8
g3
NtRp825
(dp826
g11
g24
sg13
VPalatino Linotype
p827
sg15
I700
sg16
g12
sg17
g12
sg18
VC:\u005cWINDOWS\u005cFonts\u005cpalabi.ttf
p828
sg20
g21
sbag1
(g8
g3
NtRp829
(dp830
g11
g24
sg13
VCalibri
p831
sg15
I400
sg16
g12
sg17
g12
sg18
VC:\u005cWINDOWS\u005cFonts\u005ccalibrii.ttf
p832
sg20
g21
sbag1
(g8
g3
NtRp833
(dp834
g11
g12
sg13
VNiagara Engraved
p835
sg15
I400
sg16
g12
sg17
g12
sg18
Vc:\u005cwindows\u005cfonts\u005cniageng.ttf
p836
sg20
g21
sbag1
(g8
g3
NtRp837
(dp838
g11
g24
sg13
VElephant
p839
sg15
I400
sg16
g12
sg17
g12
sg18
VC:\u005cWINDOWS\u005cFonts\u005cELEPHNTI.TTF
p840
sg20
g21
sbag1
(g8
g3
NtRp841
(dp842
g11
g12
sg13
VNirmala UI
p843
sg15
I200
sg16
g12
sg17
g12
sg18
Vc:\u005cwindows\u005cfonts\u005cnirmalas.ttf
p844
sg20
g21
sbag1
(g8
g3
NtRp845
(dp846
g11
g24
sg13
VCentury Schoolbook
p847
sg15
I400
sg16
g12
sg17
g12
sg18
Vc:\u005cwindows\u005cfonts\u005cschlbki.ttf
p848
sg20
g21
sbag1
(g8
g3
NtRp849
(dp850
g11
g24
sg13
VGentium Basic
p851
sg15
I700
sg16
g12
sg17
g12
sg18
Vc:\u005cwindows\u005cfonts\u005cgenbasbi.ttf
p852
sg20
g21
sbag1
(g8
g3
NtRp853
(dp854
g11
g12
sg13
VLinux Libertine G
p855
sg15
I700
sg16
g12
sg17
g12
sg18
VC:\u005cWINDOWS\u005cFonts\u005cLinLibertine_RZ_G.ttf
p856
sg20
g21
sbag1
(g8
g3
NtRp857
(dp858
g11
g12
sg13
VMyanmar Text
p859
sg15
I400
sg16
g12
sg17
g12
sg18
VC:\u005cWINDOWS\u005cFonts\u005cmmrtext.ttf
p860
sg20
g21
sbag1
(g8
g3
NtRp861
(dp862
g11
g12
sg13
VNueva Std
p863
sg15
I700
sg16
g12
sg17
g12
sg18
VC:\u005cWINDOWS\u005cFonts\u005cNuevaStd-Bold.otf
p864
sg20
g21
sbag1
(g8
g3
NtRp865
(dp866
g11
g12
sg13
VKozuka Mincho Pr6N
p867
sg15
I700
sg16
g12
sg17
g12
sg18
VC:\u005cWINDOWS\u005cFonts\u005cKozMinPr6N-Heavy.otf
p868
sg20
g21
sbag1
(g8
g3
NtRp869
(dp870
g11
g12
sg13
VNirmala UI
p871
sg15
I400
sg16
g12
sg17
g12
sg18
VC:\u005cWINDOWS\u005cFonts\u005cNirmala.ttf
p872
sg20
g21
sbag1
(g8
g3
NtRp873
(dp874
g11
g12
sg13
VSegoe UI Historic
p875
sg15
I400
sg16
g12
sg17
g12
sg18
VC:\u005cWINDOWS\u005cFonts\u005cseguihis.ttf
p876
sg20
g21
sbag1
(g8
g3
NtRp877
(dp878
g11
g12
sg13
VAdobe Devanagari
p879
sg15
I700
sg16
g12
sg17
g12
sg18
VC:\u005cWINDOWS\u005cFonts\u005cAdobeDevanagari-Bold.otf
p880
sg20
g21
sbag1
(g8
g3
NtRp881
(dp882
g11
g12
sg13
VMyriad Hebrew
p883
sg15
I700
sg16
g12
sg17
g12
sg18
VC:\u005cWINDOWS\u005cFonts\u005cMyriadHebrew-Bold.otf
p884
sg20
g21
sbag1
(g8
g3
NtRp885
(dp886
g11
g12
sg13
VGentium Book Basic
p887
sg15
I400
sg16
g12
sg17
g12
sg18
Vc:\u005cwindows\u005cfonts\u005cgenbkbasr.ttf
p888
sg20
g21
sbag1
(g8
g3
NtRp889
(dp890
g11
g12
sg13
VBritannic Bold
p891
sg15
I700
sg16
g12
sg17
g12
sg18
VC:\u005cWINDOWS\u005cFonts\u005cBRITANIC.TTF
p892
sg20
g21
sbag1
(g8
g3
NtRp893
(dp894
g11
g12
sg13
VOnyx
p895
sg15
I400
sg16
g12
sg17
g12
sg18
Vc:\u005cwindows\u005cfonts\u005conyx.ttf
p896
sg20
g21
sbag1
(g8
g3
NtRp897
(dp898
g11
g12
sg13
VGadugi
p899
sg15
I400
sg16
g12
sg17
g12
sg18
Vc:\u005cwindows\u005cfonts\u005cgadugi.ttf
p900
sg20
g21
sbag1
(g8
g3
NtRp901
(dp902
g11
g12
sg13
VLinux Libertine G
p903
sg15
I700
sg16
g12
sg17
g12
sg18
VC:\u005cWINDOWS\u005cFonts\u005cLinLibertine_RB_G.ttf
p904
sg20
g21
sbag1
(g8
g3
NtRp905
(dp906
g11
g12
sg13
VCaladea
p907
sg15
I400
sg16
g12
sg17
g12
sg18
VC:\u005cWINDOWS\u005cFonts\u005cCaladea-Regular.ttf
p908
sg20
g21
sbag1
(g8
g3
NtRp909
(dp910
g11
g12
sg13
VSegoe UI
p911
sg15
I400
sg16
g12
sg17
g12
sg18
VC:\u005cWINDOWS\u005cFonts\u005csegoeuisl.ttf
p912
sg20
g21
sbag1
(g8
g3
NtRp913
(dp914
g11
g12
sg13
VTw Cen MT Condensed Extra Bold
p915
sg15
I700
sg16
g179
sg17
g12
sg18
VC:\u005cWINDOWS\u005cFonts\u005cTCCEB.TTF
p916
sg20
g21
sbag1
(g8
g3
NtRp917
(dp918
g11
g12
sg13
VMyriad Pro
p919
sg15
I700
sg16
g179
sg17
g12
sg18
Vc:\u005cwindows\u005cfonts\u005cmyriadpro-boldcond.otf
p920
sg20
g21
sbag1
(g8
g3
NtRp921
(dp922
g11
g12
sg13
VSegoe WP
p923
sg15
I400
sg16
g12
sg17
g12
sg18
Vc:\u005cwindows\u005cfonts\u005csegoewp.ttf
p924
sg20
g21
sbag1
(g8
g3
NtRp925
(dp926
g11
g12
sg13
VCourier New
p927
sg15
I400
sg16
g12
sg17
g12
sg18
VC:\u005cWINDOWS\u005cFonts\u005ccour.ttf
p928
sg20
g21
sbag1
(g8
g3
NtRp929
(dp930
g11
g24
sg13
VGill Sans MT
p931
sg15
I400
sg16
g12
sg17
g12
sg18
VC:\u005cWINDOWS\u005cFonts\u005cGILI____.TTF
p932
sg20
g21
sbag1
(g8
g3
NtRp933
(dp934
g11
g37
sg13
VDejaVu Sans
p935
sg15
I400
sg16
g12
sg17
g12
sg18
Vc:\u005cwindows\u005cfonts\u005cdejavusans-oblique.ttf
p936
sg20
g21
sbag1
(g8
g3
NtRp937
(dp938
g11
g12
sg13
VEbrima
p939
sg15
I400
sg16
g12
sg17
g12
sg18
VC:\u005cWINDOWS\u005cFonts\u005cebrima.ttf
p940
sg20
g21
sbag1
(g8
g3
NtRp941
(dp942
g11
g12
sg13
VKozuka Mincho Pro
p943
sg15
I400
sg16
g12
sg17
g12
sg18
VC:\u005cWINDOWS\u005cFonts\u005cKozMinPro-ExtraLight.otf
p944
sg20
g21
sbag1
(g8
g3
NtRp945
(dp946
g11
g12
sg13
VMalgun Gothic
p947
sg15
I200
sg16
g12
sg17
g12
sg18
VC:\u005cWINDOWS\u005cFonts\u005cmalgunsl.ttf
p948
sg20
g21
sbag1
(g8
g3
NtRp949
(dp950
g11
g24
sg13
VBookman Old Style
p951
sg15
I400
sg16
g12
sg17
g12
sg18
Vc:\u005cwindows\u005cfonts\u005cbookosi.ttf
p952
sg20
g21
sbag1
(g8
g3
NtRp953
(dp954
g11
g12
sg13
VFootlight MT Light
p955
sg15
I200
sg16
g12
sg17
g12
sg18
VC:\u005cWINDOWS\u005cFonts\u005cFTLTLT.TTF
p956
sg20
g21
sbag1
(g8
g3
NtRp957
(dp958
g11
g12
sg13
VFranklin Gothic Demi
p959
sg15
I600
sg16
g12
sg17
g12
sg18
VC:\u005cWINDOWS\u005cFonts\u005cFRADM.TTF
p960
sg20
g21
sbag1
(g8
g3
NtRp961
(dp962
g11
g12
sg13
VGloucester MT Extra Condensed
p963
sg15
I400
sg16
g179
sg17
g12
sg18
Vc:\u005cwindows\u005cfonts\u005cglecb.ttf
p964
sg20
g21
sbag1
(g8
g3
NtRp965
(dp966
g11
g12
sg13
VWingdings 2
p967
sg15
I400
sg16
g12
sg17
g12
sg18
VC:\u005cWINDOWS\u005cFonts\u005cWINGDNG2.TTF
p968
sg20
g21
sbag1
(g8
g3
NtRp969
(dp970
g11
g12
sg13
VYu Gothic
p971
sg15
I700
sg16
g12
sg17
g12
sg18
VC:\u005cWINDOWS\u005cFonts\u005cYuGothic-Bold.ttf
p972
sg20
g21
sbag1
(g8
g3
NtRp973
(dp974
g11
g24
sg13
VLinux Biolinum G
p975
sg15
I400
sg16
g12
sg17
g12
sg18
VC:\u005cWINDOWS\u005cFonts\u005cLinBiolinum_RI_G.ttf
p976
sg20
g21
sbag1
(g8
g3
NtRp977
(dp978
g11
g12
sg13
VAdobe Ming Std
p979
sg15
I400
sg16
g12
sg17
g12
sg18
Vc:\u005cwindows\u005cfonts\u005cadobemingstd-light.otf
p980
sg20
g21
sbag1
(g8
g3
NtRp981
(dp982
g11
g24
sg13
VAdobe Garamond Pro
p983
sg15
I700
sg16
g12
sg17
g12
sg18
VC:\u005cWINDOWS\u005cFonts\u005cAGaramondPro-BoldItalic.otf
p984
sg20
g21
sbag1
(g8
g3
NtRp985
(dp986
g11
g12
sg13
VSegoe WP
p987
sg15
I400
sg16
g12
sg17
g12
sg18
VC:\u005cWINDOWS\u005cFonts\u005cSegoeWP-Semibold.ttf
p988
sg20
g21
sbag1
(g8
g3
NtRp989
(dp990
g11
g24
sg13
VLinux Libertine G
p991
sg15
I400
sg16
g12
sg17
g12
sg18
Vc:\u005cwindows\u005cfonts\u005clinlibertine_ri_g.ttf
p992
sg20
g21
sbag1
(g8
g3
NtRp993
(dp994
g11
g24
sg13
VSource Sans Pro
p995
sg15
I700
sg16
g12
sg17
g12
sg18
Vc:\u005cwindows\u005cfonts\u005csourcesanspro-semiboldit.ttf
p996
sg20
g21
sbag1
(g8
g3
NtRp997
(dp998
g11
g12
sg13
VNueva Std
p999
sg15
I400
sg16
g179
sg17
g12
sg18
Vc:\u005cwindows\u005cfonts\u005cnuevastd-cond.otf
p1000
sg20
g21
sbag1
(g8
g3
NtRp1001
(dp1002
g11
g24
sg13
VGentium Book Basic
p1003
sg15
I400
sg16
g12
sg17
g12
sg18
Vc:\u005cwindows\u005cfonts\u005cgenbkbasi.ttf
p1004
sg20
g21
sbag1
(g8
g3
NtRp1005
(dp1006
g11
g24
sg13
VFranklin Gothic Heavy
p1007
sg15
I800
sg16
g12
sg17
g12
sg18
VC:\u005cWINDOWS\u005cFonts\u005cFRAHVIT.TTF
p1008
sg20
g21
sbag1
(g8
g3
NtRp1009
(dp1010
g11
g24
sg13
VCalibri
p1011
sg15
I200
sg16
g12
sg17
g12
sg18
VC:\u005cWINDOWS\u005cFonts\u005ccalibrili.ttf
p1012
sg20
g21
sbag1
(g8
g3
NtRp1013
(dp1014
g11
g12
sg13
VCentaur
p1015
sg15
I400
sg16
g12
sg17
g12
sg18
Vc:\u005cwindows\u005cfonts\u005ccentaur.ttf
p1016
sg20
g21
sbag1
(g8
g3
NtRp1017
(dp1018
g11
g12
sg13
VCalisto MT
p1019
sg15
I400
sg16
g12
sg17
g12
sg18
VC:\u005cWINDOWS\u005cFonts\u005cCALIST.TTF
p1020
sg20
g21
sbag1
(g8
g3
NtRp1021
(dp1022
g11
g12
sg13
VLiberation Sans
p1023
sg15
I400
sg16
g12
sg17
g12
sg18
Vc:\u005cwindows\u005cfonts\u005cliberationsans-regular.ttf
p1024
sg20
g21
sbag1
(g8
g3
NtRp1025
(dp1026
g11
g12
sg13
VSource Sans Pro
p1027
sg15
I200
sg16
g12
sg17
g12
sg18
VC:\u005cWINDOWS\u005cFonts\u005cSourceSansPro-ExtraLight.ttf
p1028
sg20
g21
sbag1
(g8
g3
NtRp1029
(dp1030
g11
g12
sg13
VFrench Script MT
p1031
sg15
I400
sg16
g12
sg17
g12
sg18
VC:\u005cWINDOWS\u005cFonts\u005cFRSCRIPT.TTF
p1032
sg20
g21
sbag1
(g8
g3
NtRp1033
(dp1034
g11
g12
sg13
VLetter Gothic Std
p1035
sg15
I500
sg16
g12
sg17
g12
sg18
VC:\u005cWINDOWS\u005cFonts\u005cLetterGothicStd.otf
p1036
sg20
g21
sbag1
(g8
g3
NtRp1037
(dp1038
g11
g12
sg13
VSegoe WP
p1039
sg15
I400
sg16
g12
sg17
g12
sg18
VC:\u005cWINDOWS\u005cFonts\u005cSegoeWP.ttf
p1040
sg20
g21
sbag1
(g8
g3
NtRp1041
(dp1042
g11
g12
sg13
VPerpetua
p1043
sg15
I400
sg16
g12
sg17
g12
sg18
Vc:\u005cwindows\u005cfonts\u005cper_____.ttf
p1044
sg20
g21
sbag1
(g8
g3
NtRp1045
(dp1046
g11
g24
sg13
VLetter Gothic Std
p1047
sg15
I700
sg16
g12
sg17
g12
sg18
VC:\u005cWINDOWS\u005cFonts\u005cLetterGothicStd-BoldSlanted.otf
p1048
sg20
g21
sbag1
(g8
g3
NtRp1049
(dp1050
g11
g12
sg13
VDejaVu Serif
p1051
sg15
I400
sg16
g179
sg17
g12
sg18
Vc:\u005cwindows\u005cfonts\u005cdejavuserifcondensed.ttf
p1052
sg20
g21
sbag1
(g8
g3
NtRp1053
(dp1054
g11
g12
sg13
VArial Rounded MT Bold
p1055
sg15
I700
sg16
g12
sg17
g12
sg18
Vc:\u005cwindows\u005cfonts\u005carlrdbd.ttf
p1056
sg20
g21
sbag1
(g8
g3
NtRp1057
(dp1058
g11
g12
sg13
VLiberation Sans Narrow
p1059
sg15
I400
sg16
g179
sg17
g12
sg18
Vc:\u005cwindows\u005cfonts\u005cliberationsansnarrow-regular.ttf
p1060
sg20
g21
sbag1
(g8
g3
NtRp1061
(dp1062
g11
g12
sg13
VBernard MT Condensed
p1063
sg15
I400
sg16
g179
sg17
g12
sg18
Vc:\u005cwindows\u005cfonts\u005cbernhc.ttf
p1064
sg20
g21
sbag1
(g8
g3
NtRp1065
(dp1066
g11
g12
sg13
VSource Sans Pro
p1067
sg15
I700
sg16
g12
sg17
g12
sg18
VC:\u005cWINDOWS\u005cFonts\u005cSourceSansPro-Semibold.ttf
p1068
sg20
g21
sbag1
(g8
g3
NtRp1069
(dp1070
g11
g12
sg13
VKozuka Mincho Pro
p1071
sg15
I400
sg16
g12
sg17
g12
sg18
Vc:\u005cwindows\u005cfonts\u005ckozminpro-light.otf
p1072
sg20
g21
sbag1
(g8
g3
NtRp1073
(dp1074
g11
g12
sg13
VOpen Sans
p1075
sg15
I400
sg16
g12
sg17
g12
sg18
VC:\u005cWINDOWS\u005cFonts\u005cOpenSans-Regular.ttf
p1076
sg20
g21
sbag1
(g8
g3
NtRp1077
(dp1078
g11
g12
sg13
VAgency FB
p1079
sg15
I400
sg16
g12
sg17
g12
sg18
VC:\u005cWINDOWS\u005cFonts\u005cAGENCYR.TTF
p1080
sg20
g21
sbag1
(g8
g3
NtRp1081
(dp1082
g11
g12
sg13
VCastellar
p1083
sg15
I400
sg16
g12
sg17
g12
sg18
Vc:\u005cwindows\u005cfonts\u005ccastelar.ttf
p1084
sg20
g21
sbag1
(g8
g3
NtRp1085
(dp1086
g11
g12
sg13
VCentury Gothic
p1087
sg15
I700
sg16
g12
sg17
g12
sg18
VC:\u005cWINDOWS\u005cFonts\u005cGOTHICB.TTF
p1088
sg20
g21
sbag1
(g8
g3
NtRp1089
(dp1090
g11
g12
sg13
VBuxton Sketch
p1091
sg15
I400
sg16
g12
sg17
g12
sg18
VC:\u005cWINDOWS\u005cFonts\u005cBuxtonSketch.ttf
p1092
sg20
g21
sbag1
(g8
g3
NtRp1093
(dp1094
g11
g24
sg13
VCarlito
p1095
sg15
I700
sg16
g12
sg17
g12
sg18
VC:\u005cWINDOWS\u005cFonts\u005cCarlito-BoldItalic.ttf
p1096
sg20
g21
sbag1
(g8
g3
NtRp1097
(dp1098
g11
g24
sg13
VRage Italic
p1099
sg15
I400
sg16
g12
sg17
g12
sg18
VC:\u005cWINDOWS\u005cFonts\u005cRAGE.TTF
p1100
sg20
g21
sbag1
(g8
g3
NtRp1101
(dp1102
g11
g24
sg13
VMyriad Arabic
p1103
sg15
I700
sg16
g12
sg17
g12
sg18
Vc:\u005cwindows\u005cfonts\u005cmyriadarabic-boldit.otf
p1104
sg20
g21
sbag1
(g8
g3
NtRp1105
(dp1106
g11
g12
sg13
VAdobe Fan Heiti Std
p1107
sg15
I700
sg16
g12
sg17
g12
sg18
VC:\u005cWINDOWS\u005cFonts\u005cAdobeFanHeitiStd-Bold.otf
p1108
sg20
g21
sbag1
(g8
g3
NtRp1109
(dp1110
g11
g12
sg13
VFranklin Gothic Medium
p1111
sg15
I500
sg16
g12
sg17
g12
sg18
VC:\u005cWINDOWS\u005cFonts\u005cframd.ttf
p1112
sg20
g21
sbag1
(g8
g3
NtRp1113
(dp1114
g11
g24
sg13
VMinion Pro
p1115
sg15
I700
sg16
g179
sg17
g12
sg18
VC:\u005cWINDOWS\u005cFonts\u005cMinionPro-BoldCnIt.otf
p1116
sg20
g21
sbag1
(g8
g3
NtRp1117
(dp1118
g11
g24
sg13
VCambria
p1119
sg15
I400
sg16
g12
sg17
g12
sg18
VC:\u005cWINDOWS\u005cFonts\u005ccambriai.ttf
p1120
sg20
g21
sbag1
(g8
g3
NtRp1121
(dp1122
g11
g24
sg13
VCambria
p1123
sg15
I700
sg16
g12
sg17
g12
sg18
VC:\u005cWINDOWS\u005cFonts\u005ccambriaz.ttf
p1124
sg20
g21
sbag1
(g8
g3
NtRp1125
(dp1126
g11
g12
sg13
VArial Unicode MS
p1127
sg15
I400
sg16
g12
sg17
g12
sg18
Vc:\u005cwindows\u005cfonts\u005carialuni.ttf
p1128
sg20
g21
sbag1
(g8
g3
NtRp1129
(dp1130
g11
g24
sg13
VMinion Pro
p1131
sg15
I700
sg16
g12
sg17
g12
sg18
Vc:\u005cwindows\u005cfonts\u005cminionpro-semiboldit.otf
p1132
sg20
g21
sbag1
(g8
g3
NtRp1133
(dp1134
g11
g12
sg13
VEbrima
p1135
sg15
I700
sg16
g12
sg17
g12
sg18
Vc:\u005cwindows\u005cfonts\u005cebrimabd.ttf
p1136
sg20
g21
sbag1
(g8
g3
NtRp1137
(dp1138
g11
g24
sg13
VAdobe Caslon Pro
p1139
sg15
I700
sg16
g12
sg17
g12
sg18
VC:\u005cWINDOWS\u005cFonts\u005cACaslonPro-SemiboldItalic.otf
p1140
sg20
g21
sbag1
(g8
g3
NtRp1141
(dp1142
g11
g12
sg13
VGill Sans Ultra Bold Condensed
p1143
sg15
I700
sg16
g179
sg17
g12
sg18
Vc:\u005cwindows\u005cfonts\u005cgillubcd.ttf
p1144
sg20
g21
sbag1
(g8
g3
NtRp1145
(dp1146
g11
g12
sg13
VCorbel
p1147
sg15
I400
sg16
g12
sg17
g12
sg18
VC:\u005cWINDOWS\u005cFonts\u005ccorbel.ttf
p1148
sg20
g21
sbag1
(g8
g3
NtRp1149
(dp1150
g11
g12
sg13
VGigi
p1151
sg15
I400
sg16
g12
sg17
g12
sg18
VC:\u005cWINDOWS\u005cFonts\u005cGIGI.TTF
p1152
sg20
g21
sbag1
(g8
g3
NtRp1153
(dp1154
g11
g24
sg13
VConsolas
p1155
sg15
I700
sg16
g12
sg17
g12
sg18
VC:\u005cWINDOWS\u005cFonts\u005cconsolaz.ttf
p1156
sg20
g21
sbag1
(g8
g3
NtRp1157
(dp1158
g11
g12
sg13
VCalibri
p1159
sg15
I700
sg16
g12
sg17
g12
sg18
VC:\u005cWINDOWS\u005cFonts\u005ccalibrib.ttf
p1160
sg20
g21
sbag1
(g8
g3
NtRp1161
(dp1162
g11
g12
sg13
VColonna MT
p1163
sg15
I400
sg16
g12
sg17
g12
sg18
VC:\u005cWINDOWS\u005cFonts\u005cCOLONNA.TTF
p1164
sg20
g21
sbag1
(g8
g3
NtRp1165
(dp1166
g11
g24
sg13
VPerpetua
p1167
sg15
I400
sg16
g12
sg17
g12
sg18
Vc:\u005cwindows\u005cfonts\u005cperi____.ttf
p1168
sg20
g21
sbag1
(g8
g3
NtRp1169
(dp1170
g11
g12
sg13
VRockwell
p1171
sg15
I400
sg16
g12
sg17
g12
sg18
VC:\u005cWINDOWS\u005cFonts\u005cROCK.TTF
p1172
sg20
g21
sbag1
(g8
g3
NtRp1173
(dp1174
g11
g12
sg13
VCopperplate Gothic Light
p1175
sg15
I200
sg16
g12
sg17
g12
sg18
Vc:\u005cwindows\u005cfonts\u005ccoprgtl.ttf
p1176
sg20
g21
sbag1
(g8
g3
NtRp1177
(dp1178
g11
g24
sg13
VTw Cen MT
p1179
sg15
I400
sg16
g12
sg17
g12
sg18
Vc:\u005cwindows\u005cfonts\u005ctcmi____.ttf
p1180
sg20
g21
sbag1
(g8
g3
NtRp1181
(dp1182
g11
g12
sg13
VMyriad Pro
p1183
sg15
I400
sg16
g12
sg17
g12
sg18
VC:\u005cWINDOWS\u005cFonts\u005cMyriadPro-Regular.otf
p1184
sg20
g21
sbag1
(g8
g3
NtRp1185
(dp1186
g11
g12
sg13
VCalibri
p1187
sg15
I400
sg16
g12
sg17
g12
sg18
Vc:\u005cwindows\u005cfonts\u005ccalibri.ttf
p1188
sg20
g21
sbag1
(g8
g3
NtRp1189
(dp1190
g11
g12
sg13
VSegoe Print
p1191
sg15
I400
sg16
g12
sg17
g12
sg18
Vc:\u005cwindows\u005cfonts\u005csegoepr.ttf
p1192
sg20
g21
sbag1
(g8
g3
NtRp1193
(dp1194
g11
g12
sg13
VTimes New Roman
p1195
sg15
I500
sg16
g12
sg17
g12
sg18
Vc:\u005cwindows\u005cfonts\u005ctimes.ttf
p1196
sg20
g21
sbag1
(g8
g3
NtRp1197
(dp1198
g11
g12
sg13
VWingdings 2
p1199
sg15
I400
sg16
g12
sg17
g12
sg18
Vc:\u005cwindows\u005cfonts\u005cwingdng2.ttf
p1200
sg20
g21
sbag1
(g8
g3
NtRp1201
(dp1202
g11
g12
sg13
VConsolas
p1203
sg15
I700
sg16
g12
sg17
g12
sg18
Vc:\u005cwindows\u005cfonts\u005cconsolab.ttf
p1204
sg20
g21
sbag1
(g8
g3
NtRp1205
(dp1206
g11
g12
sg13
VBerlin Sans FB
p1207
sg15
I400
sg16
g12
sg17
g12
sg18
Vc:\u005cwindows\u005cfonts\u005cbrlnsr.ttf
p1208
sg20
g21
sbag1
(g8
g3
NtRp1209
(dp1210
g11
g24
sg13
VAdobe Devanagari
p1211
sg15
I700
sg16
g12
sg17
g12
sg18
VC:\u005cWINDOWS\u005cFonts\u005cAdobeDevanagari-BoldItalic.otf
p1212
sg20
g21
sbag1
(g8
g3
NtRp1213
(dp1214
g11
g12
sg13
VCooper Std
p1215
sg15
I900
sg16
g12
sg17
g12
sg18
Vc:\u005cwindows\u005cfonts\u005ccooperblackstd.otf
p1216
sg20
g21
sbag1
(g8
g3
NtRp1217
(dp1218
g11
g12
sg13
VLiberation Sans Narrow
p1219
sg15
I400
sg16
g179
sg17
g12
sg18
VC:\u005cWINDOWS\u005cFonts\u005cLiberationSansNarrow-Regular.ttf
p1220
sg20
g21
sbag1
(g8
g3
NtRp1221
(dp1222
g11
g12
sg13
VDejaVu Sans
p1223
sg15
I400
sg16
g12
sg17
g12
sg18
Vc:\u005cwindows\u005cfonts\u005cdejavusans.ttf
p1224
sg20
g21
sbag1
(g8
g3
NtRp1225
(dp1226
g11
g24
sg13
VCourier New
p1227
sg15
I400
sg16
g12
sg17
g12
sg18
Vc:\u005cwindows\u005cfonts\u005ccouri.ttf
p1228
sg20
g21
sbag1
(g8
g3
NtRp1229
(dp1230
g11
g12
sg13
VBerlin Sans FB Demi
p1231
sg15
I700
sg16
g12
sg17
g12
sg18
VC:\u005cWINDOWS\u005cFonts\u005cBRLNSDB.TTF
p1232
sg20
g21
sbag1
(g8
g3
NtRp1233
(dp1234
g11
g24
sg13
VNueva Std
p1235
sg15
I400
sg16
g179
sg17
g12
sg18
Vc:\u005cwindows\u005cfonts\u005cnuevastd-conditalic.otf
p1236
sg20
g21
sbag1
(g8
g3
NtRp1237
(dp1238
g11
g24
sg13
VTimes New Roman
p1239
sg15
I700
sg16
g12
sg17
g12
sg18
VC:\u005cWINDOWS\u005cFonts\u005ctimesbi.ttf
p1240
sg20
g21
sbag1
(g8
g3
NtRp1241
(dp1242
g11
g24
sg13
VBodoni MT
p1243
sg15
I400
sg16
g12
sg17
g12
sg18
Vc:\u005cwindows\u005cfonts\u005cbod_i.ttf
p1244
sg20
g21
sbag1
(g8
g3
NtRp1245
(dp1246
g11
g12
sg13
VBodoni MT
p1247
sg15
I400
sg16
g12
sg17
g12
sg18
VC:\u005cWINDOWS\u005cFonts\u005cBOD_PSTC.TTF
p1248
sg20
g21
sbag1
(g8
g3
NtRp1249
(dp1250
g11
g24
sg13
VMinion Pro
p1251
sg15
I400
sg16
g12
sg17
g12
sg18
Vc:\u005cwindows\u005cfonts\u005cminionpro-it.otf
p1252
sg20
g21
sbag1
(g8
g3
NtRp1253
(dp1254
g11
g12
sg13
VNueva Std
p1255
sg15
I400
sg16
g179
sg17
g12
sg18
VC:\u005cWINDOWS\u005cFonts\u005cNuevaStd-Cond.otf
p1256
sg20
g21
sbag1
(g8
g3
NtRp1257
(dp1258
g11
g12
sg13
VEngravers MT
p1259
sg15
I400
sg16
g12
sg17
g12
sg18
Vc:\u005cwindows\u005cfonts\u005cengr.ttf
p1260
sg20
g21
sbag1
(g8
g3
NtRp1261
(dp1262
g11
g12
sg13
VBirch Std
p1263
sg15
I400
sg16
g12
sg17
g12
sg18
VC:\u005cWINDOWS\u005cFonts\u005cBirchStd.otf
p1264
sg20
g21
sbag1
(g8
g3
NtRp1265
(dp1266
g11
g12
sg13
VLucida Sans Unicode
p1267
sg15
I400
sg16
g12
sg17
g12
sg18
Vc:\u005cwindows\u005cfonts\u005cl_10646.ttf
p1268
sg20
g21
sbag1
(g8
g3
NtRp1269
(dp1270
g11
g24
sg13
VMinion Pro
p1271
sg15
I500
sg16
g12
sg17
g12
sg18
Vc:\u005cwindows\u005cfonts\u005cminionpro-mediumit.otf
p1272
sg20
g21
sbag1
(g8
g3
NtRp1273
(dp1274
g11
g12
sg13
VKozuka Mincho Pro
p1275
sg15
I400
sg16
g12
sg17
g12
sg18
Vc:\u005cwindows\u005cfonts\u005ckozminpro-regular.otf
p1276
sg20
g21
sbag1
(g8
g3
NtRp1277
(dp1278
g11
g12
sg13
VLucida Fax
p1279
sg15
I400
sg16
g12
sg17
g12
sg18
VC:\u005cWINDOWS\u005cFonts\u005cLFAX.TTF
p1280
sg20
g21
sbag1
(g8
g3
NtRp1281
(dp1282
g11
g12
sg13
VPerpetua Titling MT
p1283
sg15
I700
sg16
g12
sg17
g12
sg18
VC:\u005cWINDOWS\u005cFonts\u005cPERTIBD.TTF
p1284
sg20
g21
sbag1
(g8
g3
NtRp1285
(dp1286
g11
g12
sg13
VBirch Std
p1287
sg15
I400
sg16
g12
sg17
g12
sg18
Vc:\u005cwindows\u005cfonts\u005cbirchstd.otf
p1288
sg20
g21
sbag1
(g8
g3
NtRp1289
(dp1290
g11
g24
sg13
VBook Antiqua
p1291
sg15
I400
sg16
g12
sg17
g12
sg18
Vc:\u005cwindows\u005cfonts\u005cantquai.ttf
p1292
sg20
g21
sbag1
(g8
g3
NtRp1293
(dp1294
g11
g12
sg13
VKozuka Gothic Pro
p1295
sg15
I400
sg16
g12
sg17
g12
sg18
VC:\u005cWINDOWS\u005cFonts\u005cKozGoPro-Medium.otf
p1296
sg20
g21
sbag1
(g8
g3
NtRp1297
(dp1298
g11
g12
sg13
VDejaVu Serif
p1299
sg15
I400
sg16
g12
sg17
g12
sg18
VC:\u005cWINDOWS\u005cFonts\u005cDejaVuSerif.ttf
p1300
sg20
g21
sbag1
(g8
g3
NtRp1301
(dp1302
g11
g24
sg13
VMyriad Pro
p1303
sg15
I400
sg16
g12
sg17
g12
sg18
VC:\u005cWINDOWS\u005cFonts\u005cMyriadPro-It.otf
p1304
sg20
g21
sbag1
(g8
g3
NtRp1305
(dp1306
g11
g12
sg13
VSource Sans Pro
p1307
sg15
I900
sg16
g12
sg17
g12
sg18
VC:\u005cWINDOWS\u005cFonts\u005cSourceSansPro-Black.ttf
p1308
sg20
g21
sbag1
(g8
g3
NtRp1309
(dp1310
g11
g12
sg13
VKozuka Gothic Pro
p1311
sg15
I700
sg16
g12
sg17
g12
sg18
Vc:\u005cwindows\u005cfonts\u005ckozgopro-bold.otf
p1312
sg20
g21
sbag1
(g8
g3
NtRp1313
(dp1314
g11
g12
sg13
VBookman Old Style
p1315
sg15
I700
sg16
g12
sg17
g12
sg18
Vc:\u005cwindows\u005cfonts\u005cbookosb.ttf
p1316
sg20
g21
sbag1
(g8
g3
NtRp1317
(dp1318
g11
g12
sg13
VKristen ITC
p1319
sg15
I400
sg16
g12
sg17
g12
sg18
Vc:\u005cwindows\u005cfonts\u005citckrist.ttf
p1320
sg20
g21
sbag1
(g8
g3
NtRp1321
(dp1322
g11
g12
sg13
VSegoe Marker
p1323
sg15
I400
sg16
g12
sg17
g12
sg18
VC:\u005cWINDOWS\u005cFonts\u005cSegoeMarker.ttf
p1324
sg20
g21
sbag1
(g8
g3
NtRp1325
(dp1326
g11
g12
sg13
VFelix Titling
p1327
sg15
I400
sg16
g12
sg17
g12
sg18
Vc:\u005cwindows\u005cfonts\u005cfelixti.ttf
p1328
sg20
g21
sbag1
(g8
g3
NtRp1329
(dp1330
g11
g12
sg13
VPerpetua
p1331
sg15
I400
sg16
g12
sg17
g12
sg18
VC:\u005cWINDOWS\u005cFonts\u005cPER_____.TTF
p1332
sg20
g21
sbag1
(g8
g3
NtRp1333
(dp1334
g11
g24
sg13
VPalatino Linotype
p1335
sg15
I400
sg16
g12
sg17
g12
sg18
Vc:\u005cwindows\u005cfonts\u005cpalai.ttf
p1336
sg20
g21
sbag1
(g8
g3
NtRp1337
(dp1338
g11
g24
sg13
VFranklin Gothic Heavy
p1339
sg15
I800
sg16
g12
sg17
g12
sg18
Vc:\u005cwindows\u005cfonts\u005cfrahvit.ttf
p1340
sg20
g21
sbag1
(g8
g3
NtRp1341
(dp1342
g11
g12
sg13
VCarlito
p1343
sg15
I700
sg16
g12
sg17
g12
sg18
Vc:\u005cwindows\u005cfonts\u005ccarlito-bold.ttf
p1344
sg20
g21
sbag1
(g8
g3
NtRp1345
(dp1346
g11
g12
sg13
VPapyrus
p1347
sg15
I400
sg16
g12
sg17
g12
sg18
VC:\u005cWINDOWS\u005cFonts\u005cPAPYRUS.TTF
p1348
sg20
g21
sbag1
(g8
g3
NtRp1349
(dp1350
g11
g37
sg13
VDejaVu Sans
p1351
sg15
I700
sg16
g179
sg17
g12
sg18
VC:\u005cWINDOWS\u005cFonts\u005cDejaVuSansCondensed-BoldOblique.ttf
p1352
sg20
g21
sbag1
(g8
g3
NtRp1353
(dp1354
g11
g12
sg13
VFranklin Gothic Medium Cond
p1355
sg15
I500
sg16
g179
sg17
g12
sg18
VC:\u005cWINDOWS\u005cFonts\u005cFRAMDCN.TTF
p1356
sg20
g21
sbag1
(g8
g3
NtRp1357
(dp1358
g11
g24
sg13
VSource Sans Pro
p1359
sg15
I200
sg16
g12
sg17
g12
sg18
Vc:\u005cwindows\u005cfonts\u005csourcesanspro-lightit.ttf
p1360
sg20
g21
sbag1
(g8
g3
NtRp1361
(dp1362
g11
g12
sg13
VPerpetua Titling MT
p1363
sg15
I200
sg16
g12
sg17
g12
sg18
Vc:\u005cwindows\u005cfonts\u005cpertili.ttf
p1364
sg20
g21
sbag1
(g8
g3
NtRp1365
(dp1366
g11
g24
sg13
VSegoe UI
p1367
sg15
I400
sg16
g12
sg17
g12
sg18
Vc:\u005cwindows\u005cfonts\u005csegoeuii.ttf
p1368
sg20
g21
sbag1
(g8
g3
NtRp1369
(dp1370
g11
g12
sg13
VBodoni MT
p1371
sg15
I700
sg16
g12
sg17
g12
sg18
Vc:\u005cwindows\u005cfonts\u005cbod_b.ttf
p1372
sg20
g21
sbag1
(g8
g3
NtRp1373
(dp1374
g11
g12
sg13
VGeorgia
p1375
sg15
I700
sg16
g12
sg17
g12
sg18
VC:\u005cWINDOWS\u005cFonts\u005cgeorgiab.ttf
p1376
sg20
g21
sbag1
(g8
g3
NtRp1377
(dp1378
g11
g12
sg13
VMinion Pro
p1379
sg15
I400
sg16
g12
sg17
g12
sg18
Vc:\u005cwindows\u005cfonts\u005cminionpro-regular.otf
p1380
sg20
g21
sbag1
(g8
g3
NtRp1381
(dp1382
g11
g12
sg13
VCentury Schoolbook
p1383
sg15
I700
sg16
g12
sg17
g12
sg18
Vc:\u005cwindows\u005cfonts\u005cschlbkb.ttf
p1384
sg20
g21
sbag1
(g8
g3
NtRp1385
(dp1386
g11
g24
sg13
VSegoe UI
p1387
sg15
I400
sg16
g12
sg17
g12
sg18
VC:\u005cWINDOWS\u005cFonts\u005cseguisli.ttf
p1388
sg20
g21
sbag1
(g8
g3
NtRp1389
(dp1390
g11
g12
sg13
VArial
p1391
sg15
I700
sg16
g179
sg17
g12
sg18
VC:\u005cWINDOWS\u005cFonts\u005cARIALNB.TTF
p1392
sg20
g21
sbag1
(g8
g3
NtRp1393
(dp1394
g11
g12
sg13
VHobo Std
p1395
sg15
I500
sg16
g12
sg17
g12
sg18
Vc:\u005cwindows\u005cfonts\u005chobostd.otf
p1396
sg20
g21
sbag1
(g8
g3
NtRp1397
(dp1398
g11
g12
sg13
VChiller
p1399
sg15
I400
sg16
g12
sg17
g12
sg18
Vc:\u005cwindows\u005cfonts\u005cchiller.ttf
p1400
sg20
g21
sbag1
(g8
g3
NtRp1401
(dp1402
g11
g12
sg13
VCarlito
p1403
sg15
I700
sg16
g12
sg17
g12
sg18
VC:\u005cWINDOWS\u005cFonts\u005cCarlito-Bold.ttf
p1404
sg20
g21
sbag1
(g8
g3
NtRp1405
(dp1406
g11
g12
sg13
VKozuka Mincho Pr6N
p1407
sg15
I400
sg16
g12
sg17
g12
sg18
VC:\u005cWINDOWS\u005cFonts\u005cKozMinPr6N-Medium.otf
p1408
sg20
g21
sbag1
(g8
g3
NtRp1409
(dp1410
g11
g12
sg13
VConstantia
p1411
sg15
I400
sg16
g12
sg17
g12
sg18
Vc:\u005cwindows\u005cfonts\u005cconstan.ttf
p1412
sg20
g21
sbag1
(g8
g3
NtRp1413
(dp1414
g11
g24
sg13
VChaparral Pro
p1415
sg15
I400
sg16
g12
sg17
g12
sg18
VC:\u005cWINDOWS\u005cFonts\u005cChaparralPro-Italic.otf
p1416
sg20
g21
sbag1
(g8
g3
NtRp1417
(dp1418
g11
g12
sg13
VKunstler Script
p1419
sg15
I400
sg16
g12
sg17
g12
sg18
VC:\u005cWINDOWS\u005cFonts\u005cKUNSTLER.TTF
p1420
sg20
g21
sbag1
(g8
g3
NtRp1421
(dp1422
g11
g12
sg13
VOrator Std
p1423
sg15
I500
sg16
g12
sg17
g12
sg18
Vc:\u005cwindows\u005cfonts\u005coratorstd.otf
p1424
sg20
g21
sbag1
(g8
g3
NtRp1425
(dp1426
g11
g12
sg13
VTrebuchet MS
p1427
sg15
I400
sg16
g12
sg17
g12
sg18
Vc:\u005cwindows\u005cfonts\u005ctrebuc.ttf
p1428
sg20
g21
sbag1
(g8
g3
NtRp1429
(dp1430
g11
g12
sg13
VPT Serif
p1431
sg15
I700
sg16
g12
sg17
g12
sg18
VC:\u005cWINDOWS\u005cFonts\u005cPT_Serif-Web-Bold.ttf
p1432
sg20
g21
sbag1
(g8
g3
NtRp1433
(dp1434
g11
g12
sg13
VGill Sans MT
p1435
sg15
I400
sg16
g12
sg17
g12
sg18
Vc:\u005cwindows\u005cfonts\u005cgil_____.ttf
p1436
sg20
g21
sbag1
(g8
g3
NtRp1437
(dp1438
g11
g12
sg13
VAdobe Devanagari
p1439
sg15
I700
sg16
g12
sg17
g12
sg18
Vc:\u005cwindows\u005cfonts\u005cadobedevanagari-bold.otf
p1440
sg20
g21
sbag1
(g8
g3
NtRp1441
(dp1442
g11
g24
sg13
VAdobe Arabic
p1443
sg15
I400
sg16
g12
sg17
g12
sg18
VC:\u005cWINDOWS\u005cFonts\u005cAdobeArabic-Italic.otf
p1444
sg20
g21
sbag1
(g8
g3
NtRp1445
(dp1446
g11
g12
sg13
VMyriad Arabic
p1447
sg15
I700
sg16
g12
sg17
g12
sg18
VC:\u005cWINDOWS\u005cFonts\u005cMyriadArabic-Bold.otf
p1448
sg20
g21
sbag1
(g8
g3
NtRp1449
(dp1450
g11
g24
sg13
VOpen Sans
p1451
sg15
I700
sg16
g12
sg17
g12
sg18
VC:\u005cWINDOWS\u005cFonts\u005cOpenSans-BoldItalic.ttf
p1452
sg20
g21
sbag1
(g8
g3
NtRp1453
(dp1454
g11
g12
sg13
VCentaur
p1455
sg15
I400
sg16
g12
sg17
g12
sg18
VC:\u005cWINDOWS\u005cFonts\u005cCENTAUR.TTF
p1456
sg20
g21
sbag1
(g8
g3
NtRp1457
(dp1458
g11
g12
sg13
VGill Sans MT
p1459
sg15
I700
sg16
g12
sg17
g12
sg18
Vc:\u005cwindows\u005cfonts\u005cgilb____.ttf
p1460
sg20
g21
sbag1
(g8
g3
NtRp1461
(dp1462
g11
g12
sg13
VTrajan Pro
p1463
sg15
I400
sg16
g12
sg17
g12
sg18
Vc:\u005cwindows\u005cfonts\u005ctrajanpro-regular.otf
p1464
sg20
g21
sbag1
(g8
g3
NtRp1465
(dp1466
g11
g24
sg13
VCentury Gothic
p1467
sg15
I700
sg16
g12
sg17
g12
sg18
VC:\u005cWINDOWS\u005cFonts\u005cGOTHICBI.TTF
p1468
sg20
g21
sbag1
(g8
g3
NtRp1469
(dp1470
g11
g12
sg13
VHigh Tower Text
p1471
sg15
I400
sg16
g12
sg17
g12
sg18
VC:\u005cWINDOWS\u005cFonts\u005cHTOWERT.TTF
p1472
sg20
g21
sbag1
(g8
g3
NtRp1473
(dp1474
g11
g12
sg13
VJavanese Text
p1475
sg15
I400
sg16
g12
sg17
g12
sg18
Vc:\u005cwindows\u005cfonts\u005cjavatext.ttf
p1476
sg20
g21
sbag1
(g8
g3
NtRp1477
(dp1478
g11
g24
sg13
VCorbel
p1479
sg15
I700
sg16
g12
sg17
g12
sg18
VC:\u005cWINDOWS\u005cFonts\u005ccorbelz.ttf
p1480
sg20
g21
sbag1
(g8
g3
NtRp1481
(dp1482
g11
g12
sg13
VCalifornian FB
p1483
sg15
I400
sg16
g12
sg17
g12
sg18
Vc:\u005cwindows\u005cfonts\u005ccalifr.ttf
p1484
sg20
g21
sbag1
(g8
g3
NtRp1485
(dp1486
g11
g12
sg13
VLeelawadee UI
p1487
sg15
I700
sg16
g12
sg17
g12
sg18
VC:\u005cWINDOWS\u005cFonts\u005cLeelaUIb.ttf
p1488
sg20
g21
sbag1
(g8
g3
NtRp1489
(dp1490
g11
g12
sg13
VMicrosoft MHei
p1491
sg15
I400
sg16
g12
sg17
g12
sg18
VC:\u005cWINDOWS\u005cFonts\u005cMSMHei.ttf
p1492
sg20
g21
sbag1
(g8
g3
NtRp1493
(dp1494
g11
g12
sg13
VSegoe Script
p1495
sg15
I700
sg16
g12
sg17
g12
sg18
Vc:\u005cwindows\u005cfonts\u005csegoescb.ttf
p1496
sg20
g21
sbag1
(g8
g3
NtRp1497
(dp1498
g11
g12
sg13
VSource Sans Pro
p1499
sg15
I700
sg16
g12
sg17
g12
sg18
Vc:\u005cwindows\u005cfonts\u005csourcesanspro-semibold.ttf
p1500
sg20
g21
sbag1
(g8
g3
NtRp1501
(dp1502
g11
g12
sg13
VCentury Schoolbook
p1503
sg15
I400
sg16
g12
sg17
g12
sg18
Vc:\u005cwindows\u005cfonts\u005ccenscbk.ttf
p1504
sg20
g21
sbag1
(g8
g3
NtRp1505
(dp1506
g11
g12
sg13
VAdobe Fangsong Std
p1507
sg15
I400
sg16
g12
sg17
g12
sg18
Vc:\u005cwindows\u005cfonts\u005cadobefangsongstd-regular.otf
p1508
sg20
g21
sbag1
(g8
g3
NtRp1509
(dp1510
g11
g24
sg13
VMyriad Pro
p1511
sg15
I400
sg16
g179
sg17
g12
sg18
Vc:\u005cwindows\u005cfonts\u005cmyriadpro-condit.otf
p1512
sg20
g21
sbag1
(g8
g3
NtRp1513
(dp1514
g11
g12
sg13
VForte
p1515
sg15
I400
sg16
g12
sg17
g12
sg18
VC:\u005cWINDOWS\u005cFonts\u005cFORTE.TTF
p1516
sg20
g21
sbag1
(g8
g3
NtRp1517
(dp1518
g11
g12
sg13
VEras Demi ITC
p1519
sg15
I600
sg16
g12
sg17
g12
sg18
VC:\u005cWINDOWS\u005cFonts\u005cERASDEMI.TTF
p1520
sg20
g21
sbag1
(g8
g3
NtRp1521
(dp1522
g11
g12
sg13
VPoplar Std
p1523
sg15
I900
sg16
g12
sg17
g12
sg18
Vc:\u005cwindows\u005cfonts\u005cpoplarstd.otf
p1524
sg20
g21
sbag1
(g8
g3
NtRp1525
(dp1526
g11
g12
sg13
VBodoni MT
p1527
sg15
I400
sg16
g12
sg17
g12
sg18
VC:\u005cWINDOWS\u005cFonts\u005cBOD_R.TTF
p1528
sg20
g21
sbag1
(g8
g3
NtRp1529
(dp1530
g11
g12
sg13
VOCR A Std
p1531
sg15
I400
sg16
g12
sg17
g12
sg18
VC:\u005cWINDOWS\u005cFonts\u005cOCRAStd.otf
p1532
sg20
g21
sbag1
(g8
g3
NtRp1533
(dp1534
g11
g12
sg13
VAdobe Arabic
p1535
sg15
I400
sg16
g12
sg17
g12
sg18
Vc:\u005cwindows\u005cfonts\u005cadobearabic-regular.otf
p1536
sg20
g21
sbag1
(g8
g3
NtRp1537
(dp1538
g11
g12
sg13
VAdobe Ming Std
p1539
sg15
I400
sg16
g12
sg17
g12
sg18
VC:\u005cWINDOWS\u005cFonts\u005cAdobeMingStd-Light.otf
p1540
sg20
g21
sbag1
(g8
g3
NtRp1541
(dp1542
g11
g12
sg13
VSource Code Pro
p1543
sg15
I700
sg16
g12
sg17
g12
sg18
VC:\u005cWINDOWS\u005cFonts\u005cSourceCodePro-Bold.ttf
p1544
sg20
g21
sbag1
(g8
g3
NtRp1545
(dp1546
g11
g24
sg13
VTw Cen MT
p1547
sg15
I700
sg16
g12
sg17
g12
sg18
Vc:\u005cwindows\u005cfonts\u005ctcbi____.ttf
p1548
sg20
g21
sbag1
(g8
g3
NtRp1549
(dp1550
g11
g24
sg13
VMinion Pro
p1551
sg15
I700
sg16
g12
sg17
g12
sg18
VC:\u005cWINDOWS\u005cFonts\u005cMinionPro-SemiboldIt.otf
p1552
sg20
g21
sbag1
(g8
g3
NtRp1553
(dp1554
g11
g12
sg13
VVerdana
p1555
sg15
I700
sg16
g12
sg17
g12
sg18
Vc:\u005cwindows\u005cfonts\u005cverdanab.ttf
p1556
sg20
g21
sbag1
(g8
g3
NtRp1557
(dp1558
g11
g37
sg13
VLucida Sans Typewriter
p1559
sg15
I700
sg16
g12
sg17
g12
sg18
VC:\u005cWINDOWS\u005cFonts\u005cLTYPEBO.TTF
p1560
sg20
g21
sbag1
(g8
g3
NtRp1561
(dp1562
g11
g24
sg13
VCourier New
p1563
sg15
I700
sg16
g12
sg17
g12
sg18
Vc:\u005cwindows\u005cfonts\u005ccourbi.ttf
p1564
sg20
g21
sbag1
(g8
g3
NtRp1565
(dp1566
g11
g12
sg13
VMicrosoft PhagsPa
p1567
sg15
I400
sg16
g12
sg17
g12
sg18
Vc:\u005cwindows\u005cfonts\u005cphagspa.ttf
p1568
sg20
g21
sbag1
(g8
g3
NtRp1569
(dp1570
g11
g12
sg13
VWingdings 3
p1571
sg15
I400
sg16
g12
sg17
g12
sg18
Vc:\u005cwindows\u005cfonts\u005cwingdng3.ttf
p1572
sg20
g21
sbag1
(g8
g3
NtRp1573
(dp1574
g11
g12
sg13
VRockwell
p1575
sg15
I700
sg16
g12
sg17
g12
sg18
VC:\u005cWINDOWS\u005cFonts\u005cROCKB.TTF
p1576
sg20
g21
sbag1
(g8
g3
NtRp1577
(dp1578
g11
g12
sg13
VGill Sans MT Ext Condensed Bold
p1579
sg15
I700
sg16
g179
sg17
g12
sg18
VC:\u005cWINDOWS\u005cFonts\u005cGLSNECB.TTF
p1580
sg20
g21
sbag1
(g8
g3
NtRp1581
(dp1582
g11
g12
sg13
VSource Sans Pro
p1583
sg15
I200
sg16
g12
sg17
g12
sg18
VC:\u005cWINDOWS\u005cFonts\u005cSourceSansPro-Light.ttf
p1584
sg20
g21
sbag1
(g8
g3
NtRp1585
(dp1586
g11
g12
sg13
VMyriad Arabic
p1587
sg15
I400
sg16
g12
sg17
g12
sg18
Vc:\u005cwindows\u005cfonts\u005cmyriadarabic-regular.otf
p1588
sg20
g21
sbag1
(g8
g3
NtRp1589
(dp1590
g11
g24
sg13
VDejaVu Serif
p1591
sg15
I400
sg16
g12
sg17
g12
sg18
Vc:\u005cwindows\u005cfonts\u005cdejavuserif-italic.ttf
p1592
sg20
g21
sbag1
(g8
g3
NtRp1593
(dp1594
g11
g12
sg13
VSegoe MDL2 Assets
p1595
sg15
I400
sg16
g12
sg17
g12
sg18
VC:\u005cWINDOWS\u005cFonts\u005csegmdl2.ttf
p1596
sg20
g21
sbag1
(g8
g3
NtRp1597
(dp1598
g11
g12
sg13
VSimSun-ExtB
p1599
sg15
I400
sg16
g12
sg17
g12
sg18
VC:\u005cWINDOWS\u005cFonts\u005csimsunb.ttf
p1600
sg20
g21
sbag1
(g8
g3
NtRp1601
(dp1602
g11
g24
sg13
VBrush Script MT
p1603
sg15
I400
sg16
g12
sg17
g12
sg18
VC:\u005cWINDOWS\u005cFonts\u005cBRUSHSCI.TTF
p1604
sg20
g21
sbag1
(g8
g3
NtRp1605
(dp1606
g11
g12
sg13
VMicrosoft NeoGothic
p1607
sg15
I400
sg16
g12
sg17
g12
sg18
VC:\u005cWINDOWS\u005cFonts\u005cMSNeoGothic.ttf
p1608
sg20
g21
sbag1
(g8
g3
NtRp1609
(dp1610
g11
g24
sg13
VCalisto MT
p1611
sg15
I400
sg16
g12
sg17
g12
sg18
Vc:\u005cwindows\u005cfonts\u005ccalisti.ttf
p1612
sg20
g21
sbag1
(g8
g3
NtRp1613
(dp1614
g11
g12
sg13
VAdobe Devanagari
p1615
sg15
I400
sg16
g12
sg17
g12
sg18
VC:\u005cWINDOWS\u005cFonts\u005cAdobeDevanagari-Regular.otf
p1616
sg20
g21
sbag1
(g8
g3
NtRp1617
(dp1618
g11
g12
sg13
VChaparral Pro
p1619
sg15
I400
sg16
g12
sg17
g12
sg18
Vc:\u005cwindows\u005cfonts\u005cchaparralpro-regular.otf
p1620
sg20
g21
sbag1
(g8
g3
NtRp1621
(dp1622
g11
g12
sg13
VPrestige Elite Std
p1623
sg15
I700
sg16
g12
sg17
g12
sg18
VC:\u005cWINDOWS\u005cFonts\u005cPrestigeEliteStd-Bd.otf
p1624
sg20
g21
sbag1
(g8
g3
NtRp1625
(dp1626
g11
g24
sg13
VChaparral Pro
p1627
sg15
I700
sg16
g12
sg17
g12
sg18
Vc:\u005cwindows\u005cfonts\u005cchaparralpro-boldit.otf
p1628
sg20
g21
sbag1
(g8
g3
NtRp1629
(dp1630
g11
g12
sg13
VViner Hand ITC
p1631
sg15
I400
sg16
g12
sg17
g12
sg18
Vc:\u005cwindows\u005cfonts\u005cvineritc.ttf
p1632
sg20
g21
sbag1
(g8
g3
NtRp1633
(dp1634
g11
g12
sg13
VJokerman
p1635
sg15
I400
sg16
g12
sg17
g12
sg18
Vc:\u005cwindows\u005cfonts\u005cjokerman.ttf
p1636
sg20
g21
sbag1
(g8
g3
NtRp1637
(dp1638
g11
g12
sg13
VLucida Sans
p1639
sg15
I700
sg16
g12
sg17
g12
sg18
VC:\u005cWINDOWS\u005cFonts\u005cLSANSD.TTF
p1640
sg20
g21
sbag1
(g8
g3
NtRp1641
(dp1642
g11
g12
sg13
VAdobe Caslon Pro
p1643
sg15
I700
sg16
g12
sg17
g12
sg18
Vc:\u005cwindows\u005cfonts\u005cacaslonpro-semibold.otf
p1644
sg20
g21
sbag1
(g8
g3
NtRp1645
(dp1646
g11
g12
sg13
VLucida Bright
p1647
sg15
I700
sg16
g12
sg17
g12
sg18
VC:\u005cWINDOWS\u005cFonts\u005cLBRITED.TTF
p1648
sg20
g21
sbag1
(g8
g3
NtRp1649
(dp1650
g11
g12
sg13
VBlackadder ITC
p1651
sg15
I900
sg16
g12
sg17
g12
sg18
Vc:\u005cwindows\u005cfonts\u005citcblkad.ttf
p1652
sg20
g21
sbag1
(g8
g3
NtRp1653
(dp1654
g11
g12
sg13
VBaskerville Old Face
p1655
sg15
I400
sg16
g12
sg17
g12
sg18
Vc:\u005cwindows\u005cfonts\u005cbaskvill.ttf
p1656
sg20
g21
sbag1
(g8
g3
NtRp1657
(dp1658
g11
g24
sg13
VLinux Libertine G
p1659
sg15
I700
sg16
g12
sg17
g12
sg18
Vc:\u005cwindows\u005cfonts\u005clinlibertine_rzi_g.ttf
p1660
sg20
g21
sbag1
(g8
g3
NtRp1661
(dp1662
g11
g12
sg13
VVerdana
p1663
sg15
I400
sg16
g12
sg17
g12
sg18
VC:\u005cWINDOWS\u005cFonts\u005cverdana.ttf
p1664
sg20
g21
sbag1
(g8
g3
NtRp1665
(dp1666
g11
g24
sg13
VRockwell
p1667
sg15
I400
sg16
g12
sg17
g12
sg18
Vc:\u005cwindows\u005cfonts\u005crocki.ttf
p1668
sg20
g21
sbag1
(g8
g3
NtRp1669
(dp1670
g11
g12
sg13
VKozuka Gothic Pro
p1671
sg15
I400
sg16
g12
sg17
g12
sg18
Vc:\u005cwindows\u005cfonts\u005ckozgopro-light.otf
p1672
sg20
g21
sbag1
(g8
g3
NtRp1673
(dp1674
g11
g24
sg13
VCalisto MT
p1675
sg15
I400
sg16
g12
sg17
g12
sg18
VC:\u005cWINDOWS\u005cFonts\u005cCALISTI.TTF
p1676
sg20
g21
sbag1
(g8
g3
NtRp1677
(dp1678
g11
g12
sg13
VBook Antiqua
p1679
sg15
I400
sg16
g12
sg17
g12
sg18
Vc:\u005cwindows\u005cfonts\u005cbkant.ttf
p1680
sg20
g21
sbag1
(g8
g3
NtRp1681
(dp1682
g11
g24
sg13
VAdobe Garamond Pro
p1683
sg15
I400
sg16
g12
sg17
g12
sg18
VC:\u005cWINDOWS\u005cFonts\u005cAGaramondPro-Italic.otf
p1684
sg20
g21
sbag1
(g8
g3
NtRp1685
(dp1686
g11
g24
sg13
VLiberation Sans
p1687
sg15
I700
sg16
g12
sg17
g12
sg18
Vc:\u005cwindows\u005cfonts\u005cliberationsans-bolditalic.ttf
p1688
sg20
g21
sbag1
(g8
g3
NtRp1689
(dp1690
g11
g12
sg13
VCalibri
p1691
sg15
I200
sg16
g12
sg17
g12
sg18
Vc:\u005cwindows\u005cfonts\u005ccalibril.ttf
p1692
sg20
g21
sbag1
(g8
g3
NtRp1693
(dp1694
g11
g24
sg13
VSource Sans Pro
p1695
sg15
I400
sg16
g12
sg17
g12
sg18
VC:\u005cWINDOWS\u005cFonts\u005cSourceSansPro-It.ttf
p1696
sg20
g21
sbag1
(g8
g3
NtRp1697
(dp1698
g11
g24
sg13
VNueva Std
p1699
sg15
I400
sg16
g12
sg17
g12
sg18
Vc:\u005cwindows\u005cfonts\u005cnuevastd-italic.otf
p1700
sg20
g21
sbag1
(g8
g3
NtRp1701
(dp1702
g11
g12
sg13
VGaramond
p1703
sg15
I700
sg16
g12
sg17
g12
sg18
Vc:\u005cwindows\u005cfonts\u005cgarabd.ttf
p1704
sg20
g21
sbag1
(g8
g3
NtRp1705
(dp1706
g11
g12
sg13
VSegoe UI
p1707
sg15
I400
sg16
g12
sg17
g12
sg18
Vc:\u005cwindows\u005cfonts\u005cseguibl.ttf
p1708
sg20
g21
sbag1
(g8
g3
NtRp1709
(dp1710
g11
g24
sg13
VLinux Libertine G
p1711
sg15
I700
sg16
g12
sg17
g12
sg18
Vc:\u005cwindows\u005cfonts\u005clinlibertine_rbi_g.ttf
p1712
sg20
g21
sbag1
(g8
g3
NtRp1713
(dp1714
g11
g12
sg13
VKozuka Gothic Pr6N
p1715
sg15
I400
sg16
g12
sg17
g12
sg18
VC:\u005cWINDOWS\u005cFonts\u005cKozGoPr6N-Regular.otf
p1716
sg20
g21
sbag1
(g8
g3
NtRp1717
(dp1718
g11
g12
sg13
VLinux Biolinum G
p1719
sg15
I700
sg16
g12
sg17
g12
sg18
Vc:\u005cwindows\u005cfonts\u005clinbiolinum_rb_g.ttf
p1720
sg20
g21
sbag1
(g8
g3
NtRp1721
(dp1722
g11
g12
sg13
VDengXian
p1723
sg15
I400
sg16
g12
sg17
g12
sg18
Vc:\u005cwindows\u005cfonts\u005cdengxian.ttf
p1724
sg20
g21
sbag1
(g8
g3
NtRp1725
(dp1726
g11
g12
sg13
VMinion Pro
p1727
sg15
I700
sg16
g179
sg17
g12
sg18
Vc:\u005cwindows\u005cfonts\u005cminionpro-boldcn.otf
p1728
sg20
g21
sbag1
(g8
g3
NtRp1729
(dp1730
g11
g24
sg13
VCorbel
p1731
sg15
I400
sg16
g12
sg17
g12
sg18
VC:\u005cWINDOWS\u005cFonts\u005ccorbeli.ttf
p1732
sg20
g21
sbag1
(g8
g3
NtRp1733
(dp1734
g11
g12
sg13
VJuice ITC
p1735
sg15
I400
sg16
g12
sg17
g12
sg18
VC:\u005cWINDOWS\u005cFonts\u005cJUICE___.TTF
p1736
sg20
g21
sbag1
(g8
g3
NtRp1737
(dp1738
g11
g12
sg13
VKozuka Gothic Pr6N
p1739
sg15
I700
sg16
g12
sg17
g12
sg18
Vc:\u005cwindows\u005cfonts\u005ckozgopr6n-heavy.otf
p1740
sg20
g21
sbag1
(g8
g3
NtRp1741
(dp1742
g11
g24
sg13
VRockwell
p1743
sg15
I400
sg16
g12
sg17
g12
sg18
VC:\u005cWINDOWS\u005cFonts\u005cROCKI.TTF
p1744
sg20
g21
sbag1
(g8
g3
NtRp1745
(dp1746
g11
g12
sg13
VNirmala UI
p1747
sg15
I700
sg16
g12
sg17
g12
sg18
VC:\u005cWINDOWS\u005cFonts\u005cNirmalaB.ttf
p1748
sg20
g21
sbag1
(g8
g3
NtRp1749
(dp1750
g11
g24
sg13
VLucida Bright
p1751
sg15
I400
sg16
g12
sg17
g12
sg18
VC:\u005cWINDOWS\u005cFonts\u005cLBRITEI.TTF
p1752
sg20
g21
sbag1
(g8
g3
NtRp1753
(dp1754
g11
g37
sg13
VDejaVu Sans Mono
p1755
sg15
I700
sg16
g12
sg17
g12
sg18
Vc:\u005cwindows\u005cfonts\u005cdejavusansmono-boldoblique.ttf
p1756
sg20
g21
sbag1
(g8
g3
NtRp1757
(dp1758
g11
g12
sg13
VBritannic Bold
p1759
sg15
I700
sg16
g12
sg17
g12
sg18
Vc:\u005cwindows\u005cfonts\u005cbritanic.ttf
p1760
sg20
g21
sbag1
(g8
g3
NtRp1761
(dp1762
g11
g12
sg13
VCalisto MT
p1763
sg15
I400
sg16
g12
sg17
g12
sg18
Vc:\u005cwindows\u005cfonts\u005ccalist.ttf
p1764
sg20
g21
sbag1
(g8
g3
NtRp1765
(dp1766
g11
g12
sg13
VCurlz MT
p1767
sg15
I400
sg16
g12
sg17
g12
sg18
Vc:\u005cwindows\u005cfonts\u005ccurlz___.ttf
p1768
sg20
g21
sbag1
(g8
g3
NtRp1769
(dp1770
g11
g24
sg13
VArial
p1771
sg15
I700
sg16
g12
sg17
g12
sg18
Vc:\u005cwindows\u005cfonts\u005carialbi.ttf
p1772
sg20
g21
sbag1
(g8
g3
NtRp1773
(dp1774
g11
g24
sg13
VTrebuchet MS
p1775
sg15
I400
sg16
g12
sg17
g12
sg18
Vc:\u005cwindows\u005cfonts\u005ctrebucit.ttf
p1776
sg20
g21
sbag1
(g8
g3
NtRp1777
(dp1778
g11
g12
sg13
VMyriad Hebrew
p1779
sg15
I400
sg16
g12
sg17
g12
sg18
Vc:\u005cwindows\u005cfonts\u005cmyriadhebrew-regular.otf
p1780
sg20
g21
sbag1
(g8
g3
NtRp1781
(dp1782
g11
g12
sg13
VBlackadder ITC
p1783
sg15
I900
sg16
g12
sg17
g12
sg18
VC:\u005cWINDOWS\u005cFonts\u005cITCBLKAD.TTF
p1784
sg20
g21
sbag1
(g8
g3
NtRp1785
(dp1786
g11
g12
sg13
VCourier New
p1787
sg15
I700
sg16
g12
sg17
g12
sg18
Vc:\u005cwindows\u005cfonts\u005ccourbd.ttf
p1788
sg20
g21
sbag1
(g8
g3
NtRp1789
(dp1790
g11
g12
sg13
VLinux Libertine G
p1791
sg15
I700
sg16
g12
sg17
g12
sg18
Vc:\u005cwindows\u005cfonts\u005clinlibertine_rb_g.ttf
p1792
sg20
g21
sbag1
(g8
g3
NtRp1793
(dp1794
g11
g12
sg13
VLiberation Sans Narrow
p1795
sg15
I700
sg16
g179
sg17
g12
sg18
Vc:\u005cwindows\u005cfonts\u005cliberationsansnarrow-bold.ttf
p1796
sg20
g21
sbag1
(g8
g3
NtRp1797
(dp1798
g11
g12
sg13
VPalatino Linotype
p1799
sg15
I700
sg16
g12
sg17
g12
sg18
VC:\u005cWINDOWS\u005cFonts\u005cpalab.ttf
p1800
sg20
g21
sbag1
(g8
g3
NtRp1801
(dp1802
g11
g24
sg13
VLiberation Serif
p1803
sg15
I400
sg16
g12
sg17
g12
sg18
Vc:\u005cwindows\u005cfonts\u005cliberationserif-italic.ttf
p1804
sg20
g21
sbag1
(g8
g3
NtRp1805
(dp1806
g11
g12
sg13
VLiberation Sans
p1807
sg15
I700
sg16
g12
sg17
g12
sg18
Vc:\u005cwindows\u005cfonts\u005cliberationsans-bold.ttf
p1808
sg20
g21
sbag1
(g8
g3
NtRp1809
(dp1810
g11
g24
sg13
VLiberation Sans Narrow
p1811
sg15
I700
sg16
g179
sg17
g12
sg18
VC:\u005cWINDOWS\u005cFonts\u005cLiberationSansNarrow-BoldItalic.ttf
p1812
sg20
g21
sbag1
(g8
g3
NtRp1813
(dp1814
g11
g24
sg13
VMyriad Hebrew
p1815
sg15
I400
sg16
g12
sg17
g12
sg18
VC:\u005cWINDOWS\u005cFonts\u005cMyriadHebrew-It.otf
p1816
sg20
g21
sbag1
(g8
g3
NtRp1817
(dp1818
g11
g24
sg13
VCarlito
p1819
sg15
I400
sg16
g12
sg17
g12
sg18
VC:\u005cWINDOWS\u005cFonts\u005cCarlito-Italic.ttf
p1820
sg20
g21
sbag1
(g8
g3
NtRp1821
(dp1822
g11
g12
sg13
VAdobe Arabic
p1823
sg15
I700
sg16
g12
sg17
g12
sg18
Vc:\u005cwindows\u005cfonts\u005cadobearabic-bold.otf
p1824
sg20
g21
sbag1
(g8
g3
NtRp1825
(dp1826
g11
g24
sg13
VMyriad Pro
p1827
sg15
I700
sg16
g12
sg17
g12
sg18
VC:\u005cWINDOWS\u005cFonts\u005cMyriadPro-SemiboldIt.otf
p1828
sg20
g21
sbag1
(g8
g3
NtRp1829
(dp1830
g11
g12
sg13
VBauhaus 93
p1831
sg15
I400
sg16
g12
sg17
g12
sg18
Vc:\u005cwindows\u005cfonts\u005cbauhs93.ttf
p1832
sg20
g21
sbag1
(g8
g3
NtRp1833
(dp1834
g11
g12
sg13
VPlaybill
p1835
sg15
I400
sg16
g12
sg17
g12
sg18
VC:\u005cWINDOWS\u005cFonts\u005cPLAYBILL.TTF
p1836
sg20
g21
sbag1
(g8
g3
NtRp1837
(dp1838
g11
g24
sg13
VAdobe Arabic
p1839
sg15
I400
sg16
g12
sg17
g12
sg18
Vc:\u005cwindows\u005cfonts\u005cadobearabic-italic.otf
p1840
sg20
g21
sbag1
(g8
g3
NtRp1841
(dp1842
g11
g24
sg13
VLucida Calligraphy
p1843
sg15
I400
sg16
g12
sg17
g12
sg18
Vc:\u005cwindows\u005cfonts\u005clcallig.ttf
p1844
sg20
g21
sbag1
(g8
g3
NtRp1845
(dp1846
g11
g12
sg13
VMinion Pro
p1847
sg15
I400
sg16
g12
sg17
g12
sg18
VC:\u005cWINDOWS\u005cFonts\u005cMinionPro-Regular.otf
p1848
sg20
g21
sbag1
(g8
g3
NtRp1849
(dp1850
g11
g24
sg13
VSource Sans Pro
p1851
sg15
I200
sg16
g12
sg17
g12
sg18
Vc:\u005cwindows\u005cfonts\u005csourcesanspro-extralightit.ttf
p1852
sg20
g21
sbag1
(g8
g3
NtRp1853
(dp1854
g11
g12
sg13
VKozuka Mincho Pro
p1855
sg15
I400
sg16
g12
sg17
g12
sg18
VC:\u005cWINDOWS\u005cFonts\u005cKozMinPro-Regular.otf
p1856
sg20
g21
sbag1
(g8
g3
NtRp1857
(dp1858
g11
g24
sg13
VLinux Libertine G
p1859
sg15
I700
sg16
g12
sg17
g12
sg18
VC:\u005cWINDOWS\u005cFonts\u005cLinLibertine_RZI_G.ttf
p1860
sg20
g21
sbag1
(g8
g3
NtRp1861
(dp1862
g11
g12
sg13
VRosewood Std
p1863
sg15
I400
sg16
g12
sg17
g12
sg18
Vc:\u005cwindows\u005cfonts\u005crosewoodstd-regular.otf
p1864
sg20
g21
sbag1
(g8
g3
NtRp1865
(dp1866
g11
g12
sg13
VGentium Basic
p1867
sg15
I400
sg16
g12
sg17
g12
sg18
VC:\u005cWINDOWS\u005cFonts\u005cGenBasR.ttf
p1868
sg20
g21
sbag1
(g8
g3
NtRp1869
(dp1870
g11
g12
sg13
VMongolian Baiti
p1871
sg15
I400
sg16
g12
sg17
g12
sg18
VC:\u005cWINDOWS\u005cFonts\u005cmonbaiti.ttf
p1872
sg20
g21
sbag1
(g8
g3
NtRp1873
(dp1874
g11
g12
sg13
VGoudy Stout
p1875
sg15
I400
sg16
g12
sg17
g12
sg18
VC:\u005cWINDOWS\u005cFonts\u005cGOUDYSTO.TTF
p1876
sg20
g21
sbag1
(g8
g3
NtRp1877
(dp1878
g11
g12
sg13
VLinux Biolinum G
p1879
sg15
I400
sg16
g12
sg17
g12
sg18
VC:\u005cWINDOWS\u005cFonts\u005cLinBiolinum_R_G.ttf
p1880
sg20
g21
sbag1
(g8
g3
NtRp1881
(dp1882
g11
g12
sg13
VColonna MT
p1883
sg15
I400
sg16
g12
sg17
g12
sg18
Vc:\u005cwindows\u005cfonts\u005ccolonna.ttf
p1884
sg20
g21
sbag1
(g8
g3
NtRp1885
(dp1886
g11
g12
sg13
VLeelawadee UI
p1887
sg15
I700
sg16
g12
sg17
g12
sg18
Vc:\u005cwindows\u005cfonts\u005cleelauib.ttf
p1888
sg20
g21
sbag1
(g8
g3
NtRp1889
(dp1890
g11
g12
sg13
VKozuka Gothic Pr6N
p1891
sg15
I400
sg16
g12
sg17
g12
sg18
VC:\u005cWINDOWS\u005cFonts\u005cKozGoPr6N-Light.otf
p1892
sg20
g21
sbag1
(g8
g3
NtRp1893
(dp1894
g11
g12
sg13
VCentury
p1895
sg15
I400
sg16
g12
sg17
g12
sg18
VC:\u005cWINDOWS\u005cFonts\u005cCENTURY.TTF
p1896
sg20
g21
sbag1
(g8
g3
NtRp1897
(dp1898
g11
g12
sg13
VComic Sans MS
p1899
sg15
I700
sg16
g12
sg17
g12
sg18
Vc:\u005cwindows\u005cfonts\u005ccomicbd.ttf
p1900
sg20
g21
sbag1
(g8
g3
NtRp1901
(dp1902
g11
g12
sg13
VKozuka Mincho Pr6N
p1903
sg15
I700
sg16
g12
sg17
g12
sg18
Vc:\u005cwindows\u005cfonts\u005ckozminpr6n-heavy.otf
p1904
sg20
g21
sbag1
(g8
g3
NtRp1905
(dp1906
g11
g12
sg13
VCandara
p1907
sg15
I700
sg16
g12
sg17
g12
sg18
Vc:\u005cwindows\u005cfonts\u005ccandarab.ttf
p1908
sg20
g21
sbag1
(g8
g3
NtRp1909
(dp1910
g11
g12
sg13
VPoor Richard
p1911
sg15
I400
sg16
g12
sg17
g12
sg18
VC:\u005cWINDOWS\u005cFonts\u005cPOORICH.TTF
p1912
sg20
g21
sbag1
(g8
g3
NtRp1913
(dp1914
g11
g12
sg13
VTempus Sans ITC
p1915
sg15
I400
sg16
g12
sg17
g12
sg18
Vc:\u005cwindows\u005cfonts\u005ctempsitc.ttf
p1916
sg20
g21
sbag1
(g8
g3
NtRp1917
(dp1918
g11
g12
sg13
VBodoni MT
p1919
sg15
I900
sg16
g12
sg17
g12
sg18
VC:\u005cWINDOWS\u005cFonts\u005cBOD_BLAR.TTF
p1920
sg20
g21
sbag1
(g8
g3
NtRp1921
(dp1922
g11
g12
sg13
VShowcard Gothic
p1923
sg15
I400
sg16
g12
sg17
g12
sg18
VC:\u005cWINDOWS\u005cFonts\u005cSHOWG.TTF
p1924
sg20
g21
sbag1
(g8
g3
NtRp1925
(dp1926
g11
g37
sg13
VLucida Sans Typewriter
p1927
sg15
I400
sg16
g12
sg17
g12
sg18
Vc:\u005cwindows\u005cfonts\u005cltypeo.ttf
p1928
sg20
g21
sbag1
(g8
g3
NtRp1929
(dp1930
g11
g12
sg13
VMicrosoft MHei
p1931
sg15
I700
sg16
g12
sg17
g12
sg18
VC:\u005cWINDOWS\u005cFonts\u005cMSMHei-Bold.ttf
p1932
sg20
g21
sbag1
(g8
g3
NtRp1933
(dp1934
g11
g24
sg13
VBell MT
p1935
sg15
I400
sg16
g12
sg17
g12
sg18
VC:\u005cWINDOWS\u005cFonts\u005cBELLI.TTF
p1936
sg20
g21
sbag1
(g8
g3
NtRp1937
(dp1938
g11
g12
sg13
VMyanmar Text
p1939
sg15
I700
sg16
g12
sg17
g12
sg18
VC:\u005cWINDOWS\u005cFonts\u005cmmrtextb.ttf
p1940
sg20
g21
sbag1
(g8
g3
NtRp1941
(dp1942
g11
g12
sg13
VOCR A Std
p1943
sg15
I400
sg16
g12
sg17
g12
sg18
Vc:\u005cwindows\u005cfonts\u005cocrastd.otf
p1944
sg20
g21
sbag1
(g8
g3
NtRp1945
(dp1946
g11
g37
sg13
VDejaVu Sans Mono
p1947
sg15
I700
sg16
g12
sg17
g12
sg18
VC:\u005cWINDOWS\u005cFonts\u005cDejaVuSansMono-BoldOblique.ttf
p1948
sg20
g21
sbag1
(g8
g3
NtRp1949
(dp1950
g11
g12
sg13
VGoudy Stout
p1951
sg15
I400
sg16
g12
sg17
g12
sg18
Vc:\u005cwindows\u005cfonts\u005cgoudysto.ttf
p1952
sg20
g21
sbag1
(g8
g3
NtRp1953
(dp1954
g11
g37
sg13
VDejaVu Sans
p1955
sg15
I400
sg16
g179
sg17
g12
sg18
VC:\u005cWINDOWS\u005cFonts\u005cDejaVuSansCondensed-Oblique.ttf
p1956
sg20
g21
sbag1
(g8
g3
NtRp1957
(dp1958
g11
g12
sg13
VOpen Sans
p1959
sg15
I400
sg16
g12
sg17
g12
sg18
Vc:\u005cwindows\u005cfonts\u005copensans-regular.ttf
p1960
sg20
g21
sbag1
(g8
g3
NtRp1961
(dp1962
g11
g12
sg13
VDejaVu Sans
p1963
sg15
I700
sg16
g12
sg17
g12
sg18
VC:\u005cWINDOWS\u005cFonts\u005cDejaVuSans-Bold.ttf
p1964
sg20
g21
sbag1
(g8
g3
NtRp1965
(dp1966
g11
g37
sg13
VDejaVu Sans Mono
p1967
sg15
I400
sg16
g12
sg17
g12
sg18
VC:\u005cWINDOWS\u005cFonts\u005cDejaVuSansMono-Oblique.ttf
p1968
sg20
g21
sbag1
(g8
g3
NtRp1969
(dp1970
g11
g12
sg13
VLiberation Serif
p1971
sg15
I400
sg16
g12
sg17
g12
sg18
VC:\u005cWINDOWS\u005cFonts\u005cLiberationSerif-Regular.ttf
p1972
sg20
g21
sbag1
(g8
g3
NtRp1973
(dp1974
g11
g12
sg13
VSource Code Pro
p1975
sg15
I700
sg16
g12
sg17
g12
sg18
Vc:\u005cwindows\u005cfonts\u005csourcecodepro-bold.ttf
p1976
sg20
g21
sbag1
(g8
g3
NtRp1977
(dp1978
g11
g24
sg13
VBrush Script MT
p1979
sg15
I400
sg16
g12
sg17
g12
sg18
Vc:\u005cwindows\u005cfonts\u005cbrushsci.ttf
p1980
sg20
g21
sbag1
(g8
g3
NtRp1981
(dp1982
g11
g24
sg13
VSource Sans Pro
p1983
sg15
I200
sg16
g12
sg17
g12
sg18
VC:\u005cWINDOWS\u005cFonts\u005cSourceSansPro-LightIt.ttf
p1984
sg20
g21
sbag1
(g8
g3
NtRp1985
(dp1986
g11
g24
sg13
VAdobe Caslon Pro
p1987
sg15
I700
sg16
g12
sg17
g12
sg18
Vc:\u005cwindows\u005cfonts\u005cacaslonpro-semibolditalic.otf
p1988
sg20
g21
sbag1
(g8
g3
NtRp1989
(dp1990
g11
g12
sg13
VGill Sans MT Ext Condensed Bold
p1991
sg15
I700
sg16
g179
sg17
g12
sg18
Vc:\u005cwindows\u005cfonts\u005cglsnecb.ttf
p1992
sg20
g21
sbag1
(g8
g3
NtRp1993
(dp1994
g11
g12
sg13
VLucida Sans Typewriter
p1995
sg15
I400
sg16
g12
sg17
g12
sg18
VC:\u005cWINDOWS\u005cFonts\u005cLTYPE.TTF
p1996
sg20
g21
sbag1
(g8
g3
NtRp1997
(dp1998
g11
g24
sg13
VConstantia
p1999
sg15
I700
sg16
g12
sg17
g12
sg18
VC:\u005cWINDOWS\u005cFonts\u005cconstanz.ttf
p2000
sg20
g21
sbag1
(g8
g3
NtRp2001
(dp2002
g11
g12
sg13
VFranklin Gothic Book
p2003
sg15
I400
sg16
g12
sg17
g12
sg18
Vc:\u005cwindows\u005cfonts\u005cfrabk.ttf
p2004
sg20
g21
sbag1
(g8
g3
NtRp2005
(dp2006
g11
g37
sg13
VLucida Sans Typewriter
p2007
sg15
I400
sg16
g12
sg17
g12
sg18
VC:\u005cWINDOWS\u005cFonts\u005cLTYPEO.TTF
p2008
sg20
g21
sbag1
(g8
g3
NtRp2009
(dp2010
g11
g12
sg13
VMicrosoft Himalaya
p2011
sg15
I400
sg16
g12
sg17
g12
sg18
VC:\u005cWINDOWS\u005cFonts\u005chimalaya.ttf
p2012
sg20
g21
sbag1
(g8
g3
NtRp2013
(dp2014
g11
g24
sg13
VSource Sans Pro
p2015
sg15
I200
sg16
g12
sg17
g12
sg18
VC:\u005cWINDOWS\u005cFonts\u005cSourceSansPro-ExtraLightIt.ttf
p2016
sg20
g21
sbag1
(g8
g3
NtRp2017
(dp2018
g11
g12
sg13
VLinux Biolinum G
p2019
sg15
I400
sg16
g12
sg17
g12
sg18
Vc:\u005cwindows\u005cfonts\u005clinbiolinum_r_g.ttf
p2020
sg20
g21
sbag1
(g8
g3
NtRp2021
(dp2022
g11
g12
sg13
VMyriad Pro
p2023
sg15
I700
sg16
g12
sg17
g12
sg18
Vc:\u005cwindows\u005cfonts\u005cmyriadpro-semibold.otf
p2024
sg20
g21
sbag1
(g8
g3
NtRp2025
(dp2026
g11
g12
sg13
VGloucester MT Extra Condensed
p2027
sg15
I400
sg16
g179
sg17
g12
sg18
VC:\u005cWINDOWS\u005cFonts\u005cGLECB.TTF
p2028
sg20
g21
sbag1
(g8
g3
NtRp2029
(dp2030
g11
g12
sg13
VEras Light ITC
p2031
sg15
I200
sg16
g12
sg17
g12
sg18
Vc:\u005cwindows\u005cfonts\u005ceraslght.ttf
p2032
sg20
g21
sbag1
(g8
g3
NtRp2033
(dp2034
g11
g24
sg13
VBook Antiqua
p2035
sg15
I700
sg16
g12
sg17
g12
sg18
VC:\u005cWINDOWS\u005cFonts\u005cANTQUABI.TTF
p2036
sg20
g21
sbag1
(g8
g3
NtRp2037
(dp2038
g11
g24
sg13
VFranklin Gothic Medium
p2039
sg15
I500
sg16
g12
sg17
g12
sg18
Vc:\u005cwindows\u005cfonts\u005cframdit.ttf
p2040
sg20
g21
sbag1
(g8
g3
NtRp2041
(dp2042
g11
g24
sg13
VMyriad Arabic
p2043
sg15
I400
sg16
g12
sg17
g12
sg18
VC:\u005cWINDOWS\u005cFonts\u005cMyriadArabic-It.otf
p2044
sg20
g21
sbag1
(g8
g3
NtRp2045
(dp2046
g11
g12
sg13
VBrush Script Std
p2047
sg15
I500
sg16
g12
sg17
g12
sg18
VC:\u005cWINDOWS\u005cFonts\u005cBrushScriptStd.otf
p2048
sg20
g21
sbag1
(g8
g3
NtRp2049
(dp2050
g11
g12
sg13
VSource Sans Pro
p2051
sg15
I700
sg16
g12
sg17
g12
sg18
VC:\u005cWINDOWS\u005cFonts\u005cSourceSansPro-Bold.ttf
p2052
sg20
g21
sbag1
(g8
g3
NtRp2053
(dp2054
g11
g24
sg13
VAdobe Hebrew
p2055
sg15
I700
sg16
g12
sg17
g12
sg18
VC:\u005cWINDOWS\u005cFonts\u005cAdobeHebrew-BoldItalic.otf
p2056
sg20
g21
sbag1
(g8
g3
NtRp2057
(dp2058
g11
g12
sg13
VACAT ICON
p2059
sg15
I400
sg16
g12
sg17
g12
sg18
Vc:\u005cintel\u005cacat\u005cassets\u005cfonts\u005cacat icon.ttf
p2060
sg20
g21
sbag1
(g8
g3
NtRp2061
(dp2062
g11
g24
sg13
VCaladea
p2063
sg15
I700
sg16
g12
sg17
g12
sg18
Vc:\u005cwindows\u005cfonts\u005ccaladea-bolditalic.ttf
p2064
sg20
g21
sbag1
(g8
g3
NtRp2065
(dp2066
g11
g12
sg13
VMesquite Std
p2067
sg15
I500
sg16
g12
sg17
g12
sg18
Vc:\u005cwindows\u005cfonts\u005cmesquitestd.otf
p2068
sg20
g21
sbag1
(g8
g3
NtRp2069
(dp2070
g11
g12
sg13
VPerpetua Titling MT
p2071
sg15
I700
sg16
g12
sg17
g12
sg18
Vc:\u005cwindows\u005cfonts\u005cpertibd.ttf
p2072
sg20
g21
sbag1
(g8
g3
NtRp2073
(dp2074
g11
g12
sg13
VCaladea
p2075
sg15
I400
sg16
g12
sg17
g12
sg18
Vc:\u005cwindows\u005cfonts\u005ccaladea-regular.ttf
p2076
sg20
g21
sbag1
(g8
g3
NtRp2077
(dp2078
g11
g37
sg13
VDejaVu Sans
p2079
sg15
I400
sg16
g179
sg17
g12
sg18
Vc:\u005cwindows\u005cfonts\u005cdejavusanscondensed-oblique.ttf
p2080
sg20
g21
sbag1
(g8
g3
NtRp2081
(dp2082
g11
g24
sg13
VElephant
p2083
sg15
I400
sg16
g12
sg17
g12
sg18
Vc:\u005cwindows\u005cfonts\u005celephnti.ttf
p2084
sg20
g21
sbag1
(g8
g3
NtRp2085
(dp2086
g11
g24
sg13
VCentury Gothic
p2087
sg15
I700
sg16
g12
sg17
g12
sg18
Vc:\u005cwindows\u005cfonts\u005cgothicbi.ttf
p2088
sg20
g21
sbag1
(g8
g3
NtRp2089
(dp2090
g11
g12
sg13
VTrajan Pro
p2091
sg15
I700
sg16
g12
sg17
g12
sg18
VC:\u005cWINDOWS\u005cFonts\u005cTrajanPro-Bold.otf
p2092
sg20
g21
sbag1
(g8
g3
NtRp2093
(dp2094
g11
g12
sg13
VKozuka Mincho Pr6N
p2095
sg15
I400
sg16
g12
sg17
g12
sg18
VC:\u005cWINDOWS\u005cFonts\u005cKozMinPr6N-Light.otf
p2096
sg20
g21
sbag1
(g8
g3
NtRp2097
(dp2098
g11
g24
sg13
VAdobe Garamond Pro
p2099
sg15
I400
sg16
g12
sg17
g12
sg18
Vc:\u005cwindows\u005cfonts\u005cagaramondpro-italic.otf
p2100
sg20
g21
sbag1
(g8
g3
NtRp2101
(dp2102
g11
g12
sg13
VHarrington
p2103
sg15
I400
sg16
g12
sg17
g12
sg18
Vc:\u005cwindows\u005cfonts\u005charngton.ttf
p2104
sg20
g21
sbag1
(g8
g3
NtRp2105
(dp2106
g11
g24
sg13
VMyriad Arabic
p2107
sg15
I700
sg16
g12
sg17
g12
sg18
VC:\u005cWINDOWS\u005cFonts\u005cMyriadArabic-BoldIt.otf
p2108
sg20
g21
sbag1
(g8
g3
NtRp2109
(dp2110
g11
g12
sg13
VMyriad Pro
p2111
sg15
I700
sg16
g179
sg17
g12
sg18
VC:\u005cWINDOWS\u005cFonts\u005cMyriadPro-BoldCond.otf
p2112
sg20
g21
sbag1
(g8
g3
NtRp2113
(dp2114
g11
g24
sg13
VCalibri
p2115
sg15
I700
sg16
g12
sg17
g12
sg18
Vc:\u005cwindows\u005cfonts\u005ccalibriz.ttf
p2116
sg20
g21
sbag1
(g8
g3
NtRp2117
(dp2118
g11
g12
sg13
VCalifornian FB
p2119
sg15
I400
sg16
g12
sg17
g12
sg18
VC:\u005cWINDOWS\u005cFonts\u005cCALIFR.TTF
p2120
sg20
g21
sbag1
(g8
g3
NtRp2121
(dp2122
g11
g12
sg13
VBookman Old Style
p2123
sg15
I700
sg16
g12
sg17
g12
sg18
VC:\u005cWINDOWS\u005cFonts\u005cBOOKOSB.TTF
p2124
sg20
g21
sbag1
(g8
g3
NtRp2125
(dp2126
g11
g12
sg13
VCooper Black
p2127
sg15
I900
sg16
g12
sg17
g12
sg18
VC:\u005cWINDOWS\u005cFonts\u005cCOOPBL.TTF
p2128
sg20
g21
sbag1
(g8
g3
NtRp2129
(dp2130
g11
g12
sg13
VFelix Titling
p2131
sg15
I400
sg16
g12
sg17
g12
sg18
VC:\u005cWINDOWS\u005cFonts\u005cFELIXTI.TTF
p2132
sg20
g21
sbag1
(g8
g3
NtRp2133
(dp2134
g11
g12
sg13
VGill Sans MT
p2135
sg15
I700
sg16
g12
sg17
g12
sg18
VC:\u005cWINDOWS\u005cFonts\u005cGILB____.TTF
p2136
sg20
g21
sbag1
(g8
g3
NtRp2137
(dp2138
g11
g24
sg13
VNueva Std
p2139
sg15
I400
sg16
g179
sg17
g12
sg18
VC:\u005cWINDOWS\u005cFonts\u005cNuevaStd-CondItalic.otf
p2140
sg20
g21
sbag1
(g8
g3
NtRp2141
(dp2142
g11
g37
sg13
VTekton Pro
p2143
sg15
I700
sg16
g12
sg17
g12
sg18
Vc:\u005cwindows\u005cfonts\u005ctektonpro-boldobl.otf
p2144
sg20
g21
sbag1
(g8
g3
NtRp2145
(dp2146
g11
g24
sg13
VGaramond
p2147
sg15
I400
sg16
g12
sg17
g12
sg18
Vc:\u005cwindows\u005cfonts\u005cgarait.ttf
p2148
sg20
g21
sbag1
(g8
g3
NtRp2149
(dp2150
g11
g12
sg13
VCalisto MT
p2151
sg15
I700
sg16
g12
sg17
g12
sg18
VC:\u005cWINDOWS\u005cFonts\u005cCALISTB.TTF
p2152
sg20
g21
sbag1
(g8
g3
NtRp2153
(dp2154
g11
g24
sg13
VOpen Sans
p2155
sg15
I700
sg16
g12
sg17
g12
sg18
Vc:\u005cwindows\u005cfonts\u005copensans-bolditalic.ttf
p2156
sg20
g21
sbag1
(g8
g3
NtRp2157
(dp2158
g11
g24
sg13
VCentury Schoolbook
p2159
sg15
I400
sg16
g12
sg17
g12
sg18
VC:\u005cWINDOWS\u005cFonts\u005cSCHLBKI.TTF
p2160
sg20
g21
sbag1
(g8
g3
NtRp2161
(dp2162
g11
g12
sg13
VSegoe WP
p2163
sg15
I700
sg16
g12
sg17
g12
sg18
Vc:\u005cwindows\u005cfonts\u005csegoewp-bold.ttf
p2164
sg20
g21
sbag1
(g8
g3
NtRp2165
(dp2166
g11
g12
sg13
VCentury Schoolbook
p2167
sg15
I700
sg16
g12
sg17
g12
sg18
VC:\u005cWINDOWS\u005cFonts\u005cSCHLBKB.TTF
p2168
sg20
g21
sbag1
(g8
g3
NtRp2169
(dp2170
g11
g12
sg13
VTekton Pro
p2171
sg15
I700
sg16
g12
sg17
g12
sg18
Vc:\u005cwindows\u005cfonts\u005ctektonpro-boldext.otf
p2172
sg20
g21
sbag1
(g8
g3
NtRp2173
(dp2174
g11
g12
sg13
VGigi
p2175
sg15
I400
sg16
g12
sg17
g12
sg18
Vc:\u005cwindows\u005cfonts\u005cgigi.ttf
p2176
sg20
g21
sbag1
(g8
g3
NtRp2177
(dp2178
g11
g24
sg13
VAdobe Devanagari
p2179
sg15
I400
sg16
g12
sg17
g12
sg18
VC:\u005cWINDOWS\u005cFonts\u005cAdobeDevanagari-Italic.otf
p2180
sg20
g21
sbag1
(g8
g3
NtRp2181
(dp2182
g11
g12
sg13
VCentury
p2183
sg15
I400
sg16
g12
sg17
g12
sg18
Vc:\u005cwindows\u005cfonts\u005ccentury.ttf
p2184
sg20
g21
sbag1
(g8
g3
NtRp2185
(dp2186
g11
g12
sg13
VSegoe WP
p2187
sg15
I400
sg16
g12
sg17
g12
sg18
Vc:\u005cwindows\u005cfonts\u005csegoewp-light.ttf
p2188
sg20
g21
sbag1
(g8
g3
NtRp2189
(dp2190
g11
g24
sg13
VLiberation Sans Narrow
p2191
sg15
I700
sg16
g179
sg17
g12
sg18
Vc:\u005cwindows\u005cfonts\u005cliberationsansnarrow-bolditalic.ttf
p2192
sg20
g21
sbag1
(g8
g3
NtRp2193
(dp2194
g11
g24
sg13
VGentium Basic
p2195
sg15
I400
sg16
g12
sg17
g12
sg18
VC:\u005cWINDOWS\u005cFonts\u005cGenBasI.ttf
p2196
sg20
g21
sbag1
(g8
g3
NtRp2197
(dp2198
g11
g12
sg13
VArial
p2199
sg15
I700
sg16
g179
sg17
g12
sg18
Vc:\u005cwindows\u005cfonts\u005carialnb.ttf
p2200
sg20
g21
sbag1
(g8
g3
NtRp2201
(dp2202
g11
g24
sg13
VChaparral Pro
p2203
sg15
I200
sg16
g12
sg17
g12
sg18
VC:\u005cWINDOWS\u005cFonts\u005cChaparralPro-LightIt.otf
p2204
sg20
g21
sbag1
(g8
g3
NtRp2205
(dp2206
g11
g24
sg13
VLucida Fax
p2207
sg15
I700
sg16
g12
sg17
g12
sg18
Vc:\u005cwindows\u005cfonts\u005clfaxdi.ttf
p2208
sg20
g21
sbag1
(g8
g3
NtRp2209
(dp2210
g11
g12
sg13
VCandara
p2211
sg15
I400
sg16
g12
sg17
g12
sg18
Vc:\u005cwindows\u005cfonts\u005ccandara.ttf
p2212
sg20
g21
sbag1
(g8
g3
NtRp2213
(dp2214
g11
g24
sg13
VCarlito
p2215
sg15
I700
sg16
g12
sg17
g12
sg18
Vc:\u005cwindows\u005cfonts\u005ccarlito-bolditalic.ttf
p2216
sg20
g21
sbag1
(g8
g3
NtRp2217
(dp2218
g11
g24
sg13
VPT Serif
p2219
sg15
I700
sg16
g12
sg17
g12
sg18
VC:\u005cWINDOWS\u005cFonts\u005cPT_Serif-Web-BoldItalic.ttf
p2220
sg20
g21
sbag1
(g8
g3
NtRp2221
(dp2222
g11
g12
sg13
VBook Antiqua
p2223
sg15
I700
sg16
g12
sg17
g12
sg18
VC:\u005cWINDOWS\u005cFonts\u005cANTQUAB.TTF
p2224
sg20
g21
sbag1
(g8
g3
NtRp2225
(dp2226
g11
g12
sg13
VOpen Sans
p2227
sg15
I700
sg16
g12
sg17
g12
sg18
VC:\u005cWINDOWS\u005cFonts\u005cOpenSans-Bold.ttf
p2228
sg20
g21
sbag1
(g8
g3
NtRp2229
(dp2230
g11
g12
sg13
VArial
p2231
sg15
I400
sg16
g179
sg17
g12
sg18
Vc:\u005cwindows\u005cfonts\u005carialn.ttf
p2232
sg20
g21
sbag1
(g8
g3
NtRp2233
(dp2234
g11
g12
sg13
VArial Rounded MT Bold
p2235
sg15
I700
sg16
g12
sg17
g12
sg18
VC:\u005cWINDOWS\u005cFonts\u005cARLRDBD.TTF
p2236
sg20
g21
sbag1
(g8
g3
NtRp2237
(dp2238
g11
g24
sg13
VNueva Std
p2239
sg15
I700
sg16
g179
sg17
g12
sg18
VC:\u005cWINDOWS\u005cFonts\u005cNuevaStd-BoldCondItalic.otf
p2240
sg20
g21
sbag1
(g8
g3
NtRp2241
(dp2242
g11
g24
sg13
VMinion Pro
p2243
sg15
I700
sg16
g12
sg17
g12
sg18
Vc:\u005cwindows\u005cfonts\u005cminionpro-boldit.otf
p2244
sg20
g21
sbag1
(g8
g3
NtRp2245
(dp2246
g11
g24
sg13
VVivaldi
p2247
sg15
I400
sg16
g12
sg17
g12
sg18
VC:\u005cWINDOWS\u005cFonts\u005cVIVALDII.TTF
p2248
sg20
g21
sbag1
(g8
g3
NtRp2249
(dp2250
g11
g12
sg13
VLucida Fax
p2251
sg15
I400
sg16
g12
sg17
g12
sg18
Vc:\u005cwindows\u005cfonts\u005clfax.ttf
p2252
sg20
g21
sbag1
(g8
g3
NtRp2253
(dp2254
g11
g12
sg13
VMicrosoft MHei
p2255
sg15
I400
sg16
g12
sg17
g12
sg18
Vc:\u005cwindows\u005cfonts\u005cmsmhei.ttf
p2256
sg20
g21
sbag1
(g8
g3
NtRp2257
(dp2258
g11
g12
sg13
VFranklin Gothic Demi Cond
p2259
sg15
I600
sg16
g179
sg17
g12
sg18
VC:\u005cWINDOWS\u005cFonts\u005cFRADMCN.TTF
p2260
sg20
g21
sbag1
(g8
g3
NtRp2261
(dp2262
g11
g12
sg13
VSource Code Pro
p2263
sg15
I400
sg16
g12
sg17
g12
sg18
Vc:\u005cwindows\u005cfonts\u005csourcecodepro-regular.ttf
p2264
sg20
g21
sbag1
(g8
g3
NtRp2265
(dp2266
g11
g12
sg13
VTw Cen MT
p2267
sg15
I400
sg16
g12
sg17
g12
sg18
VC:\u005cWINDOWS\u005cFonts\u005cTCM_____.TTF
p2268
sg20
g21
sbag1
(g8
g3
NtRp2269
(dp2270
g11
g12
sg13
VScript MT Bold
p2271
sg15
I700
sg16
g12
sg17
g12
sg18
VC:\u005cWINDOWS\u005cFonts\u005cSCRIPTBL.TTF
p2272
sg20
g21
sbag1
(g8
g3
NtRp2273
(dp2274
g11
g12
sg13
VHaettenschweiler
p2275
sg15
I400
sg16
g12
sg17
g12
sg18
Vc:\u005cwindows\u005cfonts\u005chatten.ttf
p2276
sg20
g21
sbag1
(g8
g3
NtRp2277
(dp2278
g11
g12
sg13
VSegoe UI Symbol
p2279
sg15
I400
sg16
g12
sg17
g12
sg18
VC:\u005cWINDOWS\u005cFonts\u005cseguisym.ttf
p2280
sg20
g21
sbag1
(g8
g3
NtRp2281
(dp2282
g11
g12
sg13
VAdobe Gothic Std
p2283
sg15
I700
sg16
g12
sg17
g12
sg18
Vc:\u005cwindows\u005cfonts\u005cadobegothicstd-bold.otf
p2284
sg20
g21
sbag1
(g8
g3
NtRp2285
(dp2286
g11
g12
sg13
VChaparral Pro
p2287
sg15
I400
sg16
g12
sg17
g12
sg18
VC:\u005cWINDOWS\u005cFonts\u005cChaparralPro-Regular.otf
p2288
sg20
g21
sbag1
(g8
g3
NtRp2289
(dp2290
g11
g12
sg13
VMagneto
p2291
sg15
I700
sg16
g12
sg17
g12
sg18
VC:\u005cWINDOWS\u005cFonts\u005cMAGNETOB.TTF
p2292
sg20
g21
sbag1
(g8
g3
NtRp2293
(dp2294
g11
g12
sg13
VTw Cen MT Condensed
p2295
sg15
I700
sg16
g179
sg17
g12
sg18
VC:\u005cWINDOWS\u005cFonts\u005cTCCB____.TTF
p2296
sg20
g21
sbag1
(g8
g3
NtRp2297
(dp2298
g11
g12
sg13
VBlackoak Std
p2299
sg15
I900
sg16
g12
sg17
g12
sg18
VC:\u005cWINDOWS\u005cFonts\u005cBlackoakStd.otf
p2300
sg20
g21
sbag1
(g8
g3
NtRp2301
(dp2302
g11
g24
sg13
VAdobe Hebrew
p2303
sg15
I400
sg16
g12
sg17
g12
sg18
VC:\u005cWINDOWS\u005cFonts\u005cAdobeHebrew-Italic.otf
p2304
sg20
g21
sbag1
(g8
g3
NtRp2305
(dp2306
g11
g12
sg13
VTw Cen MT
p2307
sg15
I700
sg16
g12
sg17
g12
sg18
VC:\u005cWINDOWS\u005cFonts\u005cTCB_____.TTF
p2308
sg20
g21
sbag1
(g8
g3
NtRp2309
(dp2310
g11
g12
sg13
VLeelawadee UI
p2311
sg15
I400
sg16
g12
sg17
g12
sg18
VC:\u005cWINDOWS\u005cFonts\u005cLeelUIsl.ttf
p2312
sg20
g21
sbag1
(g8
g3
NtRp2313
(dp2314
g11
g12
sg13
VGentium Basic
p2315
sg15
I400
sg16
g12
sg17
g12
sg18
Vc:\u005cwindows\u005cfonts\u005cgenbasr.ttf
p2316
sg20
g21
sbag1
(g8
g3
NtRp2317
(dp2318
g11
g12
sg13
VRockwell Condensed
p2319
sg15
I400
sg16
g179
sg17
g12
sg18
VC:\u005cWINDOWS\u005cFonts\u005cROCC____.TTF
p2320
sg20
g21
sbag1
(g8
g3
NtRp2321
(dp2322
g11
g24
sg13
VLucida Handwriting
p2323
sg15
I400
sg16
g12
sg17
g12
sg18
VC:\u005cWINDOWS\u005cFonts\u005cLHANDW.TTF
p2324
sg20
g21
sbag1
(g8
g3
NtRp2325
(dp2326
g11
g12
sg13
VMicrosoft Yi Baiti
p2327
sg15
I400
sg16
g12
sg17
g12
sg18
Vc:\u005cwindows\u005cfonts\u005cmsyi.ttf
p2328
sg20
g21
sbag1
(g8
g3
NtRp2329
(dp2330
g11
g12
sg13
VWingdings
p2331
sg15
I400
sg16
g12
sg17
g12
sg18
Vc:\u005cwindows\u005cfonts\u005cwingding.ttf
p2332
sg20
g21
sbag1
(g8
g3
NtRp2333
(dp2334
g11
g12
sg13
VCopperplate Gothic Bold
p2335
sg15
I700
sg16
g12
sg17
g12
sg18
VC:\u005cWINDOWS\u005cFonts\u005cCOPRGTB.TTF
p2336
sg20
g21
sbag1
(g8
g3
NtRp2337
(dp2338
g11
g12
sg13
VBell MT
p2339
sg15
I400
sg16
g12
sg17
g12
sg18
Vc:\u005cwindows\u005cfonts\u005cbell.ttf
p2340
sg20
g21
sbag1
(g8
g3
NtRp2341
(dp2342
g11
g12
sg13
VKozuka Gothic Pro
p2343
sg15
I700
sg16
g12
sg17
g12
sg18
VC:\u005cWINDOWS\u005cFonts\u005cKozGoPro-Bold.otf
p2344
sg20
g21
sbag1
(g8
g3
NtRp2345
(dp2346
g11
g12
sg13
VJokerman
p2347
sg15
I400
sg16
g12
sg17
g12
sg18
VC:\u005cWINDOWS\u005cFonts\u005cJOKERMAN.TTF
p2348
sg20
g21
sbag1
(g8
g3
NtRp2349
(dp2350
g11
g12
sg13
VKozuka Gothic Pro
p2351
sg15
I400
sg16
g12
sg17
g12
sg18
Vc:\u005cwindows\u005cfonts\u005ckozgopro-medium.otf
p2352
sg20
g21
sbag1
(g8
g3
NtRp2353
(dp2354
g11
g24
sg13
VMyriad Pro
p2355
sg15
I700
sg16
g12
sg17
g12
sg18
Vc:\u005cwindows\u005cfonts\u005cmyriadpro-semiboldit.otf
p2356
sg20
g21
sbag1
(g8
g3
NtRp2357
(dp2358
g11
g12
sg13
VTahoma
p2359
sg15
I400
sg16
g12
sg17
g12
sg18
VC:\u005cWINDOWS\u005cFonts\u005ctahoma.ttf
p2360
sg20
g21
sbag1
(g8
g3
NtRp2361
(dp2362
g11
g12
sg13
VBlackoak Std
p2363
sg15
I900
sg16
g12
sg17
g12
sg18
Vc:\u005cwindows\u005cfonts\u005cblackoakstd.otf
p2364
sg20
g21
sbag1
(g8
g3
NtRp2365
(dp2366
g11
g24
sg13
VDejaVu Serif
p2367
sg15
I700
sg16
g179
sg17
g12
sg18
Vc:\u005cwindows\u005cfonts\u005cdejavuserifcondensed-bolditalic.ttf
p2368
sg20
g21
sbag1
(g8
g3
NtRp2369
(dp2370
g11
g24
sg13
VMyriad Pro
p2371
sg15
I700
sg16
g12
sg17
g12
sg18
Vc:\u005cwindows\u005cfonts\u005cmyriadpro-boldit.otf
p2372
sg20
g21
sbag1
(g8
g3
NtRp2373
(dp2374
g11
g24
sg13
VMinion Pro
p2375
sg15
I500
sg16
g12
sg17
g12
sg18
VC:\u005cWINDOWS\u005cFonts\u005cMinionPro-MediumIt.otf
p2376
sg20
g21
sbag1
(g8
g3
NtRp2377
(dp2378
g11
g12
sg13
VJuice ITC
p2379
sg15
I400
sg16
g12
sg17
g12
sg18
Vc:\u005cwindows\u005cfonts\u005cjuice___.ttf
p2380
sg20
g21
sbag1
(g8
g3
NtRp2381
(dp2382
g11
g12
sg13
VAdobe Garamond Pro
p2383
sg15
I400
sg16
g12
sg17
g12
sg18
VC:\u005cWINDOWS\u005cFonts\u005cAGaramondPro-Regular.otf
p2384
sg20
g21
sbag1
(g8
g3
NtRp2385
(dp2386
g11
g12
sg13
VLucida Sans
p2387
sg15
I400
sg16
g12
sg17
g12
sg18
Vc:\u005cwindows\u005cfonts\u005clsans.ttf
p2388
sg20
g21
sbag1
(g8
g3
NtRp2389
(dp2390
g11
g12
sg13
VPerpetua
p2391
sg15
I700
sg16
g12
sg17
g12
sg18
VC:\u005cWINDOWS\u005cFonts\u005cPERB____.TTF
p2392
sg20
g21
sbag1
(g8
g3
NtRp2393
(dp2394
g11
g12
sg13
VFranklin Gothic Medium Cond
p2395
sg15
I500
sg16
g179
sg17
g12
sg18
Vc:\u005cwindows\u005cfonts\u005cframdcn.ttf
p2396
sg20
g21
sbag1
(g8
g3
NtRp2397
(dp2398
g11
g24
sg13
VTw Cen MT
p2399
sg15
I700
sg16
g12
sg17
g12
sg18
VC:\u005cWINDOWS\u005cFonts\u005cTCBI____.TTF
p2400
sg20
g21
sbag1
(g8
g3
NtRp2401
(dp2402
g11
g12
sg13
VKozuka Gothic Pr6N
p2403
sg15
I400
sg16
g12
sg17
g12
sg18
Vc:\u005cwindows\u005cfonts\u005ckozgopr6n-medium.otf
p2404
sg20
g21
sbag1
(g8
g3
NtRp2405
(dp2406
g11
g12
sg13
VStencil Std
p2407
sg15
I700
sg16
g12
sg17
g12
sg18
Vc:\u005cwindows\u005cfonts\u005cstencilstd.otf
p2408
sg20
g21
sbag1
(g8
g3
NtRp2409
(dp2410
g11
g12
sg13
VLithos Pro
p2411
sg15
I900
sg16
g12
sg17
g12
sg18
Vc:\u005cwindows\u005cfonts\u005clithospro-black.otf
p2412
sg20
g21
sbag1
(g8
g3
NtRp2413
(dp2414
g11
g12
sg13
VFranklin Gothic Heavy
p2415
sg15
I800
sg16
g12
sg17
g12
sg18
VC:\u005cWINDOWS\u005cFonts\u005cFRAHV.TTF
p2416
sg20
g21
sbag1
(g8
g3
NtRp2417
(dp2418
g11
g12
sg13
VNiagara Solid
p2419
sg15
I400
sg16
g12
sg17
g12
sg18
VC:\u005cWINDOWS\u005cFonts\u005cNIAGSOL.TTF
p2420
sg20
g21
sbag1
(g8
g3
NtRp2421
(dp2422
g11
g12
sg13
VDejaVu Sans Mono
p2423
sg15
I400
sg16
g12
sg17
g12
sg18
Vc:\u005cwindows\u005cfonts\u005cdejavusansmono.ttf
p2424
sg20
g21
sbag1
(g8
g3
NtRp2425
(dp2426
g11
g24
sg13
VDejaVu Serif
p2427
sg15
I700
sg16
g179
sg17
g12
sg18
VC:\u005cWINDOWS\u005cFonts\u005cDejaVuSerifCondensed-BoldItalic.ttf
p2428
sg20
g21
sbag1
(g8
g3
NtRp2429
(dp2430
g11
g12
sg13
VBook Antiqua
p2431
sg15
I700
sg16
g12
sg17
g12
sg18
Vc:\u005cwindows\u005cfonts\u005cantquab.ttf
p2432
sg20
g21
sbag1
(g8
g3
NtRp2433
(dp2434
g11
g12
sg13
VYu Gothic
p2435
sg15
I700
sg16
g12
sg17
g12
sg18
Vc:\u005cwindows\u005cfonts\u005cyugothic-bold.ttf
p2436
sg20
g21
sbag1
(g8
g3
NtRp2437
(dp2438
g11
g12
sg13
VCandara
p2439
sg15
I400
sg16
g12
sg17
g12
sg18
VC:\u005cWINDOWS\u005cFonts\u005cCandara.ttf
p2440
sg20
g21
sbag1
(g8
g3
NtRp2441
(dp2442
g11
g12
sg13
VFreestyle Script
p2443
sg15
I400
sg16
g12
sg17
g12
sg18
Vc:\u005cwindows\u005cfonts\u005cfreescpt.ttf
p2444
sg20
g21
sbag1
(g8
g3
NtRp2445
(dp2446
g11
g24
sg13
VBodoni MT
p2447
sg15
I400
sg16
g179
sg17
g12
sg18
Vc:\u005cwindows\u005cfonts\u005cbod_ci.ttf
p2448
sg20
g21
sbag1
(g8
g3
NtRp2449
(dp2450
g11
g12
sg13
VLiberation Mono
p2451
sg15
I400
sg16
g12
sg17
g12
sg18
VC:\u005cWINDOWS\u005cFonts\u005cLiberationMono-Regular.ttf
p2452
sg20
g21
sbag1
(g8
g3
NtRp2453
(dp2454
g11
g12
sg13
VCarlito
p2455
sg15
I400
sg16
g12
sg17
g12
sg18
VC:\u005cWINDOWS\u005cFonts\u005cCarlito-Regular.ttf
p2456
sg20
g21
sbag1
(g8
g3
NtRp2457
(dp2458
g11
g12
sg13
VAdobe Heiti Std
p2459
sg15
I400
sg16
g12
sg17
g12
sg18
Vc:\u005cwindows\u005cfonts\u005cadobeheitistd-regular.otf
p2460
sg20
g21
sbag1
(g8
g3
NtRp2461
(dp2462
g11
g12
sg13
VGill Sans Ultra Bold
p2463
sg15
I700
sg16
g12
sg17
g12
sg18
Vc:\u005cwindows\u005cfonts\u005cgilsanub.ttf
p2464
sg20
g21
sbag1
(g8
g3
NtRp2465
(dp2466
g11
g24
sg13
VLiberation Sans
p2467
sg15
I400
sg16
g12
sg17
g12
sg18
Vc:\u005cwindows\u005cfonts\u005cliberationsans-italic.ttf
p2468
sg20
g21
sbag1
(g8
g3
NtRp2469
(dp2470
g11
g24
sg13
VLucida Calligraphy
p2471
sg15
I400
sg16
g12
sg17
g12
sg18
VC:\u005cWINDOWS\u005cFonts\u005cLCALLIG.TTF
p2472
sg20
g21
sbag1
(g8
g3
NtRp2473
(dp2474
g11
g24
sg13
VTw Cen MT
p2475
sg15
I400
sg16
g12
sg17
g12
sg18
VC:\u005cWINDOWS\u005cFonts\u005cTCMI____.TTF
p2476
sg20
g21
sbag1
(g8
g3
NtRp2477
(dp2478
g11
g12
sg13
VMinion Pro
p2479
sg15
I700
sg16
g12
sg17
g12
sg18
Vc:\u005cwindows\u005cfonts\u005cminionpro-bold.otf
p2480
sg20
g21
sbag1
(g8
g3
NtRp2481
(dp2482
g11
g12
sg13
VBodoni MT
p2483
sg15
I700
sg16
g12
sg17
g12
sg18
VC:\u005cWINDOWS\u005cFonts\u005cBOD_B.TTF
p2484
sg20
g21
sbag1
(g8
g3
NtRp2485
(dp2486
g11
g12
sg13
VElephant
p2487
sg15
I400
sg16
g12
sg17
g12
sg18
Vc:\u005cwindows\u005cfonts\u005celephnt.ttf
p2488
sg20
g21
sbag1
(g8
g3
NtRp2489
(dp2490
g11
g12
sg13
VLucida Console
p2491
sg15
I400
sg16
g12
sg17
g12
sg18
VC:\u005cWINDOWS\u005cFonts\u005clucon.ttf
p2492
sg20
g21
sbag1
(g8
g3
NtRp2493
(dp2494
g11
g12
sg13
VBaskerville Old Face
p2495
sg15
I400
sg16
g12
sg17
g12
sg18
VC:\u005cWINDOWS\u005cFonts\u005cBASKVILL.TTF
p2496
sg20
g21
sbag1
(g8
g3
NtRp2497
(dp2498
g11
g12
sg13
VTrajan Pro
p2499
sg15
I400
sg16
g12
sg17
g12
sg18
VC:\u005cWINDOWS\u005cFonts\u005cTrajanPro-Regular.otf
p2500
sg20
g21
sbag1
(g8
g3
NtRp2501
(dp2502
g11
g12
sg13
VWide Latin
p2503
sg15
I400
sg16
Vexpanded
p2504
sg17
g12
sg18
Vc:\u005cwindows\u005cfonts\u005clatinwd.ttf
p2505
sg20
g21
sbag1
(g8
g3
NtRp2506
(dp2507
g11
g12
sg13
VHigh Tower Text
p2508
sg15
I400
sg16
g12
sg17
g12
sg18
Vc:\u005cwindows\u005cfonts\u005chtowert.ttf
p2509
sg20
g21
sbag1
(g8
g3
NtRp2510
(dp2511
g11
g12
sg13
VPapyrus
p2512
sg15
I400
sg16
g12
sg17
g12
sg18
Vc:\u005cwindows\u005cfonts\u005cpapyrus.ttf
p2513
sg20
g21
sbag1
(g8
g3
NtRp2514
(dp2515
g11
g12
sg13
VMyriad Pro
p2516
sg15
I700
sg16
g12
sg17
g12
sg18
VC:\u005cWINDOWS\u005cFonts\u005cMyriadPro-Semibold.otf
p2517
sg20
g21
sbag1
(g8
g3
NtRp2518
(dp2519
g11
g24
sg13
VLucida Bright
p2520
sg15
I700
sg16
g12
sg17
g12
sg18
Vc:\u005cwindows\u005cfonts\u005clbritedi.ttf
p2521
sg20
g21
sbag1
(g8
g3
NtRp2522
(dp2523
g11
g24
sg13
VLiberation Mono
p2524
sg15
I400
sg16
g12
sg17
g12
sg18
Vc:\u005cwindows\u005cfonts\u005cliberationmono-italic.ttf
p2525
sg20
g21
sbag1
(g8
g3
NtRp2526
(dp2527
g11
g24
sg13
VArial
p2528
sg15
I400
sg16
g179
sg17
g12
sg18
VC:\u005cWINDOWS\u005cFonts\u005cARIALNI.TTF
p2529
sg20
g21
sbag1
(g8
g3
NtRp2530
(dp2531
g11
g24
sg13
VBodoni MT
p2532
sg15
I400
sg16
g179
sg17
g12
sg18
VC:\u005cWINDOWS\u005cFonts\u005cBOD_CI.TTF
p2533
sg20
g21
sbag1
(g8
g3
NtRp2534
(dp2535
g11
g24
sg13
VLiberation Sans
p2536
sg15
I400
sg16
g12
sg17
g12
sg18
VC:\u005cWINDOWS\u005cFonts\u005cLiberationSans-Italic.ttf
p2537
sg20
g21
sbag1
(g8
g3
NtRp2538
(dp2539
g11
g24
sg13
VAdobe Arabic
p2540
sg15
I700
sg16
g12
sg17
g12
sg18
Vc:\u005cwindows\u005cfonts\u005cadobearabic-bolditalic.otf
p2541
sg20
g21
sbag1
(g8
g3
NtRp2542
(dp2543
g11
g12
sg13
VSegoe WP
p2544
sg15
I400
sg16
g12
sg17
g12
sg18
Vc:\u005cwindows\u005cfonts\u005csegoewp-semibold.ttf
p2545
sg20
g21
sbag1
(g8
g3
NtRp2546
(dp2547
g11
g12
sg13
VLiberation Mono
p2548
sg15
I700
sg16
g12
sg17
g12
sg18
Vc:\u005cwindows\u005cfonts\u005cliberationmono-bold.ttf
p2549
sg20
g21
sbag1
(g8
g3
NtRp2550
(dp2551
g11
g12
sg13
VLucida Sans Typewriter
p2552
sg15
I700
sg16
g12
sg17
g12
sg18
Vc:\u005cwindows\u005cfonts\u005cltypeb.ttf
p2553
sg20
g21
sbag1
(g8
g3
NtRp2554
(dp2555
g11
g12
sg13
VGeorgia
p2556
sg15
I400
sg16
g12
sg17
g12
sg18
VC:\u005cWINDOWS\u005cFonts\u005cgeorgia.ttf
p2557
sg20
g21
sbag1
(g8
g3
NtRp2558
(dp2559
g11
g12
sg13
VBradley Hand ITC
p2560
sg15
I400
sg16
g12
sg17
g12
sg18
VC:\u005cWINDOWS\u005cFonts\u005cBRADHITC.TTF
p2561
sg20
g21
sbag1
(g8
g3
NtRp2562
(dp2563
g11
g12
sg13
VArial
p2564
sg15
I900
sg16
g12
sg17
g12
sg18
Vc:\u005cwindows\u005cfonts\u005cariblk.ttf
p2565
sg20
g21
sbag1
(g8
g3
NtRp2566
(dp2567
g11
g12
sg13
VAdobe Song Std
p2568
sg15
I400
sg16
g12
sg17
g12
sg18
VC:\u005cWINDOWS\u005cFonts\u005cAdobeSongStd-Light.otf
p2569
sg20
g21
sbag1
(g8
g3
NtRp2570
(dp2571
g11
g12
sg13
VDejaVu Serif
p2572
sg15
I700
sg16
g12
sg17
g12
sg18
VC:\u005cWINDOWS\u005cFonts\u005cDejaVuSerif-Bold.ttf
p2573
sg20
g21
sbag1
(g8
g3
NtRp2574
(dp2575
g11
g12
sg13
VFranklin Gothic Demi Cond
p2576
sg15
I600
sg16
g179
sg17
g12
sg18
Vc:\u005cwindows\u005cfonts\u005cfradmcn.ttf
p2577
sg20
g21
sbag1
(g8
g3
NtRp2578
(dp2579
g11
g24
sg13
VBookman Old Style
p2580
sg15
I700
sg16
g12
sg17
g12
sg18
Vc:\u005cwindows\u005cfonts\u005cbookosbi.ttf
p2581
sg20
g21
sbag1
(g8
g3
NtRp2582
(dp2583
g11
g24
sg13
VSource Sans Pro
p2584
sg15
I700
sg16
g12
sg17
g12
sg18
VC:\u005cWINDOWS\u005cFonts\u005cSourceSansPro-BoldIt.ttf
p2585
sg20
g21
sbag1
(g8
g3
NtRp2586
(dp2587
g11
g12
sg13
VLinux Libertine G
p2588
sg15
I700
sg16
g12
sg17
g12
sg18
Vc:\u005cwindows\u005cfonts\u005clinlibertine_rz_g.ttf
p2589
sg20
g21
sbag1
(g8
g3
NtRp2590
(dp2591
g11
g12
sg13
VLiberation Mono
p2592
sg15
I400
sg16
g12
sg17
g12
sg18
Vc:\u005cwindows\u005cfonts\u005cliberationmono-regular.ttf
p2593
sg20
g21
sbag1
(g8
g3
NtRp2594
(dp2595
g11
g24
sg13
VLinux Libertine G
p2596
sg15
I400
sg16
g12
sg17
g12
sg18
VC:\u005cWINDOWS\u005cFonts\u005cLinLibertine_RI_G.ttf
p2597
sg20
g21
sbag1
(g8
g3
NtRp2598
(dp2599
g11
g12
sg13
VViner Hand ITC
p2600
sg15
I400
sg16
g12
sg17
g12
sg18
VC:\u005cWINDOWS\u005cFonts\u005cVINERITC.TTF
p2601
sg20
g21
sbag1
(g8
g3
NtRp2602
(dp2603
g11
g24
sg13
VDejaVu Serif
p2604
sg15
I700
sg16
g12
sg17
g12
sg18
Vc:\u005cwindows\u005cfonts\u005cdejavuserif-bolditalic.ttf
p2605
sg20
g21
sbag1
(g8
g3
NtRp2606
(dp2607
g11
g12
sg13
VPristina
p2608
sg15
I400
sg16
g12
sg17
g12
sg18
VC:\u005cWINDOWS\u005cFonts\u005cPRISTINA.TTF
p2609
sg20
g21
sbag1
(g8
g3
NtRp2610
(dp2611
g11
g12
sg13
VBauhaus 93
p2612
sg15
I400
sg16
g12
sg17
g12
sg18
VC:\u005cWINDOWS\u005cFonts\u005cBAUHS93.TTF
p2613
sg20
g21
sbag1
(g8
g3
NtRp2614
(dp2615
g11
g12
sg13
VMV Boli
p2616
sg15
I400
sg16
g12
sg17
g12
sg18
VC:\u005cWINDOWS\u005cFonts\u005cmvboli.ttf
p2617
sg20
g21
sbag1
(g8
g3
NtRp2618
(dp2619
g11
g24
sg13
VCarlito
p2620
sg15
I400
sg16
g12
sg17
g12
sg18
Vc:\u005cwindows\u005cfonts\u005ccarlito-italic.ttf
p2621
sg20
g21
sbag1
(g8
g3
NtRp2622
(dp2623
g11
g12
sg13
VVladimir Script
p2624
sg15
I400
sg16
g12
sg17
g12
sg18
VC:\u005cWINDOWS\u005cFonts\u005cVLADIMIR.TTF
p2625
sg20
g21
sbag1
(g8
g3
NtRp2626
(dp2627
g11
g12
sg13
VRavie
p2628
sg15
I400
sg16
g12
sg17
g12
sg18
VC:\u005cWINDOWS\u005cFonts\u005cRAVIE.TTF
p2629
sg20
g21
sbag1
(g8
g3
NtRp2630
(dp2631
g11
g12
sg13
VCooper Std
p2632
sg15
I900
sg16
g12
sg17
g12
sg18
VC:\u005cWINDOWS\u005cFonts\u005cCooperBlackStd.otf
p2633
sg20
g21
sbag1
(g8
g3
NtRp2634
(dp2635
g11
g24
sg13
VPerpetua
p2636
sg15
I400
sg16
g12
sg17
g12
sg18
VC:\u005cWINDOWS\u005cFonts\u005cPERI____.TTF
p2637
sg20
g21
sbag1
(g8
g3
NtRp2638
(dp2639
g11
g24
sg13
VLucida Bright
p2640
sg15
I700
sg16
g12
sg17
g12
sg18
VC:\u005cWINDOWS\u005cFonts\u005cLBRITEDI.TTF
p2641
sg20
g21
sbag1
(g8
g3
NtRp2642
(dp2643
g11
g12
sg13
VRockwell
p2644
sg15
I400
sg16
g12
sg17
g12
sg18
Vc:\u005cwindows\u005cfonts\u005crock.ttf
p2645
sg20
g21
sbag1
(g8
g3
NtRp2646
(dp2647
g11
g12
sg13
VGiddyup Std
p2648
sg15
I400
sg16
g12
sg17
g12
sg18
VC:\u005cWINDOWS\u005cFonts\u005cGiddyupStd.otf
p2649
sg20
g21
sbag1
(g8
g3
NtRp2650
(dp2651
g11
g12
sg13
VCarlito
p2652
sg15
I400
sg16
g12
sg17
g12
sg18
Vc:\u005cwindows\u005cfonts\u005ccarlito-regular.ttf
p2653
sg20
g21
sbag1
(g8
g3
NtRp2654
(dp2655
g11
g24
sg13
VLucida Sans
p2656
sg15
I700
sg16
g12
sg17
g12
sg18
Vc:\u005cwindows\u005cfonts\u005clsansdi.ttf
p2657
sg20
g21
sbag1
(g8
g3
NtRp2658
(dp2659
g11
g12
sg13
VBerlin Sans FB
p2660
sg15
I700
sg16
g12
sg17
g12
sg18
Vc:\u005cwindows\u005cfonts\u005cbrlnsb.ttf
p2661
sg20
g21
sbag1
(g8
g3
NtRp2662
(dp2663
g11
g12
sg13
VTw Cen MT
p2664
sg15
I700
sg16
g12
sg17
g12
sg18
Vc:\u005cwindows\u005cfonts\u005ctcb_____.ttf
p2665
sg20
g21
sbag1
(g8
g3
NtRp2666
(dp2667
g11
g12
sg13
VGiddyup Std
p2668
sg15
I400
sg16
g12
sg17
g12
sg18
Vc:\u005cwindows\u005cfonts\u005cgiddyupstd.otf
p2669
sg20
g21
sbag1
(g8
g3
NtRp2670
(dp2671
g11
g24
sg13
VRockwell
p2672
sg15
I700
sg16
g12
sg17
g12
sg18
Vc:\u005cwindows\u005cfonts\u005crockbi.ttf
p2673
sg20
g21
sbag1
(g8
g3
NtRp2674
(dp2675
g11
g12
sg13
VKozuka Gothic Pr6N
p2676
sg15
I400
sg16
g12
sg17
g12
sg18
Vc:\u005cwindows\u005cfonts\u005ckozgopr6n-regular.otf
p2677
sg20
g21
sbag1
(g8
g3
NtRp2678
(dp2679
g11
g12
sg13
VNueva Std
p2680
sg15
I700
sg16
g12
sg17
g12
sg18
Vc:\u005cwindows\u005cfonts\u005cnuevastd-bold.otf
p2681
sg20
g21
sbag1
(g8
g3
NtRp2682
(dp2683
g11
g24
sg13
VGoudy Old Style
p2684
sg15
I400
sg16
g12
sg17
g12
sg18
VC:\u005cWINDOWS\u005cFonts\u005cGOUDOSI.TTF
p2685
sg20
g21
sbag1
(g8
g3
NtRp2686
(dp2687
g11
g12
sg13
VLucida Fax
p2688
sg15
I700
sg16
g12
sg17
g12
sg18
VC:\u005cWINDOWS\u005cFonts\u005cLFAXD.TTF
p2689
sg20
g21
sbag1
(g8
g3
NtRp2690
(dp2691
g11
g12
sg13
VFranklin Gothic Book
p2692
sg15
I400
sg16
g12
sg17
g12
sg18
VC:\u005cWINDOWS\u005cFonts\u005cFRABK.TTF
p2693
sg20
g21
sbag1
(g8
g3
NtRp2694
(dp2695
g11
g12
sg13
VNiagara Solid
p2696
sg15
I400
sg16
g12
sg17
g12
sg18
Vc:\u005cwindows\u005cfonts\u005cniagsol.ttf
p2697
sg20
g21
sbag1
(g8
g3
NtRp2698
(dp2699
g11
g12
sg13
VGoudy Old Style
p2700
sg15
I400
sg16
g12
sg17
g12
sg18
Vc:\u005cwindows\u005cfonts\u005cgoudos.ttf
p2701
sg20
g21
sbag1
(g8
g3
NtRp2702
(dp2703
g11
g12
sg13
VSource Sans Pro
p2704
sg15
I900
sg16
g12
sg17
g12
sg18
Vc:\u005cwindows\u005cfonts\u005csourcesanspro-black.ttf
p2705
sg20
g21
sbag1
(g8
g3
NtRp2706
(dp2707
g11
g12
sg13
VInformal Roman
p2708
sg15
I500
sg16
g12
sg17
g12
sg18
VC:\u005cWINDOWS\u005cFonts\u005cINFROMAN.TTF
p2709
sg20
g21
sbag1
(g8
g3
NtRp2710
(dp2711
g11
g12
sg13
VOrator Std
p2712
sg15
I500
sg16
g12
sg17
g12
sg18
VC:\u005cWINDOWS\u005cFonts\u005cOratorStd.otf
p2713
sg20
g21
sbag1
(g8
g3
NtRp2714
(dp2715
g11
g12
sg13
VGill Sans Ultra Bold
p2716
sg15
I700
sg16
g12
sg17
g12
sg18
VC:\u005cWINDOWS\u005cFonts\u005cGILSANUB.TTF
p2717
sg20
g21
sbag1
(g8
g3
NtRp2718
(dp2719
g11
g12
sg13
VAdobe Gothic Std
p2720
sg15
I700
sg16
g12
sg17
g12
sg18
VC:\u005cWINDOWS\u005cFonts\u005cAdobeGothicStd-Bold.otf
p2721
sg20
g21
sbag1
(g8
g3
NtRp2722
(dp2723
g11
g12
sg13
VEngravers MT
p2724
sg15
I400
sg16
g12
sg17
g12
sg18
VC:\u005cWINDOWS\u005cFonts\u005cENGR.TTF
p2725
sg20
g21
sbag1
(g8
g3
NtRp2726
(dp2727
g11
g24
sg13
VCandara
p2728
sg15
I400
sg16
g12
sg17
g12
sg18
VC:\u005cWINDOWS\u005cFonts\u005cCandarai.ttf
p2729
sg20
g21
sbag1
(g8
g3
NtRp2730
(dp2731
g11
g12
sg13
VLiberation Mono
p2732
sg15
I700
sg16
g12
sg17
g12
sg18
VC:\u005cWINDOWS\u005cFonts\u005cLiberationMono-Bold.ttf
p2733
sg20
g21
sbag1
(g8
g3
NtRp2734
(dp2735
g11
g12
sg13
VGentium Book Basic
p2736
sg15
I700
sg16
g12
sg17
g12
sg18
VC:\u005cWINDOWS\u005cFonts\u005cGenBkBasB.ttf
p2737
sg20
g21
sbag1
(g8
g3
NtRp2738
(dp2739
g11
g24
sg13
VVivaldi
p2740
sg15
I400
sg16
g12
sg17
g12
sg18
Vc:\u005cwindows\u005cfonts\u005cvivaldii.ttf
p2741
sg20
g21
sbag1
(g8
g3
NtRp2742
(dp2743
g11
g12
sg13
VWingdings 3
p2744
sg15
I400
sg16
g12
sg17
g12
sg18
VC:\u005cWINDOWS\u005cFonts\u005cWINGDNG3.TTF
p2745
sg20
g21
sbag1
(g8
g3
NtRp2746
(dp2747
g11
g12
sg13
VHaettenschweiler
p2748
sg15
I400
sg16
g12
sg17
g12
sg18
VC:\u005cWINDOWS\u005cFonts\u005cHATTEN.TTF
p2749
sg20
g21
sbag1
(g8
g3
NtRp2750
(dp2751
g11
g12
sg13
VAlgerian
p2752
sg15
I400
sg16
g12
sg17
g12
sg18
Vc:\u005cwindows\u005cfonts\u005calger.ttf
p2753
sg20
g21
sbag1
(g8
g3
NtRp2754
(dp2755
g11
g12
sg13
VMatura MT Script Capitals
p2756
sg15
I400
sg16
g12
sg17
g12
sg18
Vc:\u005cwindows\u005cfonts\u005cmaturasc.ttf
p2757
sg20
g21
sbag1
(g8
g3
NtRp2758
(dp2759
g11
g12
sg13
VStencil
p2760
sg15
I400
sg16
g12
sg17
g12
sg18
VC:\u005cWINDOWS\u005cFonts\u005cSTENCIL.TTF
p2761
sg20
g21
sbag1
(g8
g3
NtRp2762
(dp2763
g11
g12
sg13
VBuxton Sketch
p2764
sg15
I400
sg16
g12
sg17
g12
sg18
Vc:\u005cwindows\u005cfonts\u005cbuxtonsketch.ttf
p2765
sg20
g21
sbag1
(g8
g3
NtRp2766
(dp2767
g11
g12
sg13
VTekton Pro
p2768
sg15
I700
sg16
g12
sg17
g12
sg18
Vc:\u005cwindows\u005cfonts\u005ctektonpro-bold.otf
p2769
sg20
g21
sbag1
(g8
g3
NtRp2770
(dp2771
g11
g12
sg13
VAdobe Myungjo Std
p2772
sg15
I400
sg16
g12
sg17
g12
sg18
VC:\u005cWINDOWS\u005cFonts\u005cAdobeMyungjoStd-Medium.otf
p2773
sg20
g21
sbag1
(g8
g3
NtRp2774
(dp2775
g11
g12
sg13
VLucida Sans Typewriter
p2776
sg15
I400
sg16
g12
sg17
g12
sg18
Vc:\u005cwindows\u005cfonts\u005cltype.ttf
p2777
sg20
g21
sbag1
(g8
g3
NtRp2778
(dp2779
g11
g12
sg13
VBookman Old Style
p2780
sg15
I400
sg16
g12
sg17
g12
sg18
VC:\u005cWINDOWS\u005cFonts\u005cBOOKOS.TTF
p2781
sg20
g21
sbag1
(g8
g3
NtRp2782
(dp2783
g11
g12
sg13
VLinux Biolinum G
p2784
sg15
I700
sg16
g12
sg17
g12
sg18
VC:\u005cWINDOWS\u005cFonts\u005cLinBiolinum_RB_G.ttf
p2785
sg20
g21
sbag1
(g8
g3
NtRp2786
(dp2787
g11
g12
sg13
VDengXian
p2788
sg15
I400
sg16
g12
sg17
g12
sg18
VC:\u005cWINDOWS\u005cFonts\u005cDengXian.ttf
p2789
sg20
g21
sbag1
(g8
g3
NtRp2790
(dp2791
g11
g12
sg13
VTekton Pro
p2792
sg15
I700
sg16
g12
sg17
g12
sg18
VC:\u005cWINDOWS\u005cFonts\u005cTektonPro-Bold.otf
p2793
sg20
g21
sbag1
(g8
g3
NtRp2794
(dp2795
g11
g12
sg13
VRosewood Std
p2796
sg15
I400
sg16
g12
sg17
g12
sg18
VC:\u005cWINDOWS\u005cFonts\u005cRosewoodStd-Regular.otf
p2797
sg20
g21
sbag1
(g8
g3
NtRp2798
(dp2799
g11
g12
sg13
VPalace Script MT
p2800
sg15
I400
sg16
g12
sg17
g12
sg18
Vc:\u005cwindows\u005cfonts\u005cpalscri.ttf
p2801
sg20
g21
sbag1
(g8
g3
NtRp2802
(dp2803
g11
g12
sg13
VCentury Gothic
p2804
sg15
I400
sg16
g12
sg17
g12
sg18
Vc:\u005cwindows\u005cfonts\u005cgothic.ttf
p2805
sg20
g21
sbag1
(g8
g3
NtRp2806
(dp2807
g11
g24
sg13
VLiberation Mono
p2808
sg15
I700
sg16
g12
sg17
g12
sg18
VC:\u005cWINDOWS\u005cFonts\u005cLiberationMono-BoldItalic.ttf
p2809
sg20
g21
sbag1
(g8
g3
NtRp2810
(dp2811
g11
g12
sg13
VCopperplate Gothic Light
p2812
sg15
I200
sg16
g12
sg17
g12
sg18
VC:\u005cWINDOWS\u005cFonts\u005cCOPRGTL.TTF
p2813
sg20
g21
sbag1
(g8
g3
NtRp2814
(dp2815
g11
g12
sg13
VMalgun Gothic
p2816
sg15
I700
sg16
g12
sg17
g12
sg18
Vc:\u005cwindows\u005cfonts\u005cmalgunbd.ttf
p2817
sg20
g21
sbag1
(g8
g3
NtRp2818
(dp2819
g11
g12
sg13
VPristina
p2820
sg15
I400
sg16
g12
sg17
g12
sg18
Vc:\u005cwindows\u005cfonts\u005cpristina.ttf
p2821
sg20
g21
sbag1
(g8
g3
NtRp2822
(dp2823
g11
g12
sg13
VStencil Std
p2824
sg15
I700
sg16
g12
sg17
g12
sg18
VC:\u005cWINDOWS\u005cFonts\u005cStencilStd.otf
p2825
sg20
g21
sbag1
(g8
g3
NtRp2826
(dp2827
g11
g12
sg13
VOld English Text MT
p2828
sg15
I400
sg16
g12
sg17
g12
sg18
VC:\u005cWINDOWS\u005cFonts\u005cOLDENGL.TTF
p2829
sg20
g21
sbag1
(g8
g3
NtRp2830
(dp2831
g11
g12
sg13
VAdobe Hebrew
p2832
sg15
I700
sg16
g12
sg17
g12
sg18
Vc:\u005cwindows\u005cfonts\u005cadobehebrew-bold.otf
p2833
sg20
g21
sbag1
(g8
g3
NtRp2834
(dp2835
g11
g12
sg13
VGadugi
p2836
sg15
I700
sg16
g12
sg17
g12
sg18
VC:\u005cWINDOWS\u005cFonts\u005cgadugib.ttf
p2837
sg20
g21
sbag1
(g8
g3
NtRp2838
(dp2839
g11
g12
sg13
VMinion Pro
p2840
sg15
I500
sg16
g12
sg17
g12
sg18
VC:\u005cWINDOWS\u005cFonts\u005cMinionPro-Medium.otf
p2841
sg20
g21
sbag1
(g8
g3
NtRp2842
(dp2843
g11
g24
sg13
VPT Serif
p2844
sg15
I400
sg16
g12
sg17
g12
sg18
Vc:\u005cwindows\u005cfonts\u005cpt_serif-web-italic.ttf
p2845
sg20
g21
sbag1
(g8
g3
NtRp2846
(dp2847
g11
g12
sg13
VAdobe Caslon Pro
p2848
sg15
I400
sg16
g12
sg17
g12
sg18
VC:\u005cWINDOWS\u005cFonts\u005cACaslonPro-Regular.otf
p2849
sg20
g21
sbag1
(g8
g3
NtRp2850
(dp2851
g11
g12
sg13
VGaramond
p2852
sg15
I400
sg16
g12
sg17
g12
sg18
Vc:\u005cwindows\u005cfonts\u005cgara.ttf
p2853
sg20
g21
sbag1
(g8
g3
NtRp2854
(dp2855
g11
g24
sg13
VLucida Fax
p2856
sg15
I400
sg16
g12
sg17
g12
sg18
Vc:\u005cwindows\u005cfonts\u005clfaxi.ttf
p2857
sg20
g21
sbag1
(g8
g3
NtRp2858
(dp2859
g11
g12
sg13
VFranklin Gothic Heavy
p2860
sg15
I800
sg16
g12
sg17
g12
sg18
Vc:\u005cwindows\u005cfonts\u005cfrahv.ttf
p2861
sg20
g21
sbag1
(g8
g3
NtRp2862
(dp2863
g11
g12
sg13
VDejaVu Serif
p2864
sg15
I400
sg16
g12
sg17
g12
sg18
Vc:\u005cwindows\u005cfonts\u005cdejavuserif.ttf
p2865
sg20
g21
sbag1
(g8
g3
NtRp2866
(dp2867
g11
g12
sg13
VBerlin Sans FB Demi
p2868
sg15
I700
sg16
g12
sg17
g12
sg18
Vc:\u005cwindows\u005cfonts\u005cbrlnsdb.ttf
p2869
sg20
g21
sbag1
(g8
g3
NtRp2870
(dp2871
g11
g12
sg13
VDejaVu Sans
p2872
sg15
I200
sg16
g12
sg17
g12
sg18
VC:\u005cWINDOWS\u005cFonts\u005cDejaVuSans-ExtraLight.ttf
p2873
sg20
g21
sbag1
(g8
g3
NtRp2874
(dp2875
g11
g24
sg13
VOrator Std
p2876
sg15
I400
sg16
g12
sg17
g12
sg18
VC:\u005cWINDOWS\u005cFonts\u005cOratorStd-Slanted.otf
p2877
sg20
g21
sbag1
(g8
g3
NtRp2878
(dp2879
g11
g12
sg13
VMyriad Arabic
p2880
sg15
I700
sg16
g12
sg17
g12
sg18
Vc:\u005cwindows\u005cfonts\u005cmyriadarabic-bold.otf
p2881
sg20
g21
sbag1
(g8
g3
NtRp2882
(dp2883
g11
g12
sg13
VKozuka Mincho Pr6N
p2884
sg15
I400
sg16
g12
sg17
g12
sg18
VC:\u005cWINDOWS\u005cFonts\u005cKozMinPr6N-ExtraLight.otf
p2885
sg20
g21
sbag1
(g8
g3
NtRp2886
(dp2887
g11
g12
sg13
VKozuka Mincho Pro
p2888
sg15
I400
sg16
g12
sg17
g12
sg18
VC:\u005cWINDOWS\u005cFonts\u005cKozMinPro-Light.otf
p2889
sg20
g21
sbag1
(g8
g3
NtRp2890
(dp2891
g11
g12
sg13
VKozuka Mincho Pro
p2892
sg15
I700
sg16
g12
sg17
g12
sg18
VC:\u005cWINDOWS\u005cFonts\u005cKozMinPro-Bold.otf
p2893
sg20
g21
sbag1
(g8
g3
NtRp2894
(dp2895
g11
g12
sg13
VKozuka Gothic Pro
p2896
sg15
I400
sg16
g12
sg17
g12
sg18
VC:\u005cWINDOWS\u005cFonts\u005cKozGoPro-Light.otf
p2897
sg20
g21
sbag1
(g8
g3
NtRp2898
(dp2899
g11
g12
sg13
VKozuka Gothic Pro
p2900
sg15
I400
sg16
g12
sg17
g12
sg18
Vc:\u005cwindows\u005cfonts\u005ckozgopro-extralight.otf
p2901
sg20
g21
sbag1
(g8
g3
NtRp2902
(dp2903
g11
g24
sg13
VComic Sans MS
p2904
sg15
I700
sg16
g12
sg17
g12
sg18
Vc:\u005cwindows\u005cfonts\u005ccomicz.ttf
p2905
sg20
g21
sbag1
(g8
g3
NtRp2906
(dp2907
g11
g24
sg13
VLiberation Sans
p2908
sg15
I700
sg16
g12
sg17
g12
sg18
VC:\u005cWINDOWS\u005cFonts\u005cLiberationSans-BoldItalic.ttf
p2909
sg20
g21
sbag1
(g8
g3
NtRp2910
(dp2911
g11
g24
sg13
VConsolas
p2912
sg15
I400
sg16
g12
sg17
g12
sg18
Vc:\u005cwindows\u005cfonts\u005cconsolai.ttf
p2913
sg20
g21
sbag1
(g8
g3
NtRp2914
(dp2915
g11
g12
sg13
VAdobe Garamond Pro
p2916
sg15
I700
sg16
g12
sg17
g12
sg18
VC:\u005cWINDOWS\u005cFonts\u005cAGaramondPro-Bold.otf
p2917
sg20
g21
sbag1
(g8
g3
NtRp2918
(dp2919
g11
g24
sg13
VLucida Sans
p2920
sg15
I400
sg16
g12
sg17
g12
sg18
VC:\u005cWINDOWS\u005cFonts\u005cLSANSI.TTF
p2921
sg20
g21
sbag1
(g8
g3
NtRp2922
(dp2923
g11
g24
sg13
VLucida Fax
p2924
sg15
I700
sg16
g12
sg17
g12
sg18
VC:\u005cWINDOWS\u005cFonts\u005cLFAXDI.TTF
p2925
sg20
g21
sbag1
(g8
g3
NtRp2926
(dp2927
g11
g24
sg13
VRage Italic
p2928
sg15
I400
sg16
g12
sg17
g12
sg18
Vc:\u005cwindows\u005cfonts\u005crage.ttf
p2929
sg20
g21
sbag1
(g8
g3
NtRp2930
(dp2931
g11
g24
sg13
VGoudy Old Style
p2932
sg15
I400
sg16
g12
sg17
g12
sg18
Vc:\u005cwindows\u005cfonts\u005cgoudosi.ttf
p2933
sg20
g21
sbag1
(g8
g3
NtRp2934
(dp2935
g11
g12
sg13
VOnyx
p2936
sg15
I400
sg16
g12
sg17
g12
sg18
VC:\u005cWINDOWS\u005cFonts\u005cONYX.TTF
p2937
sg20
g21
sbag1
(g8
g3
NtRp2938
(dp2939
g11
g12
sg13
VDejaVu Sans Mono
p2940
sg15
I700
sg16
g12
sg17
g12
sg18
Vc:\u005cwindows\u005cfonts\u005cdejavusansmono-bold.ttf
p2941
sg20
g21
sbag1
(g8
g3
NtRp2942
(dp2943
g11
g12
sg13
VLucida Bright
p2944
sg15
I400
sg16
g12
sg17
g12
sg18
Vc:\u005cwindows\u005cfonts\u005clbrite.ttf
p2945
sg20
g21
sbag1
(g8
g3
NtRp2946
(dp2947
g11
g12
sg13
VLithos Pro
p2948
sg15
I400
sg16
g12
sg17
g12
sg18
VC:\u005cWINDOWS\u005cFonts\u005cLithosPro-Regular.otf
p2949
sg20
g21
sbag1
(g8
g3
NtRp2950
(dp2951
g11
g12
sg13
VSource Sans Pro
p2952
sg15
I200
sg16
g12
sg17
g12
sg18
Vc:\u005cwindows\u005cfonts\u005csourcesanspro-extralight.ttf
p2953
sg20
g21
sbag1
(g8
g3
NtRp2954
(dp2955
g11
g12
sg13
VFrench Script MT
p2956
sg15
I400
sg16
g12
sg17
g12
sg18
Vc:\u005cwindows\u005cfonts\u005cfrscript.ttf
p2957
sg20
g21
sbag1
(g8
g3
NtRp2958
(dp2959
g11
g24
sg13
VLucida Fax
p2960
sg15
I400
sg16
g12
sg17
g12
sg18
VC:\u005cWINDOWS\u005cFonts\u005cLFAXI.TTF
p2961
sg20
g21
sbag1
(g8
g3
NtRp2962
(dp2963
g11
g12
sg13
VNiagara Engraved
p2964
sg15
I400
sg16
g12
sg17
g12
sg18
VC:\u005cWINDOWS\u005cFonts\u005cNIAGENG.TTF
p2965
sg20
g21
sbag1
(g8
g3
NtRp2966
(dp2967
g11
g24
sg13
VMyriad Hebrew
p2968
sg15
I400
sg16
g12
sg17
g12
sg18
Vc:\u005cwindows\u005cfonts\u005cmyriadhebrew-it.otf
p2969
sg20
g21
sbag1
(g8
g3
NtRp2970
(dp2971
g11
g12
sg13
VKozuka Gothic Pr6N
p2972
sg15
I400
sg16
g12
sg17
g12
sg18
VC:\u005cWINDOWS\u005cFonts\u005cKozGoPr6N-ExtraLight.otf
p2973
sg20
g21
sbag1
(g8
g3
NtRp2974
(dp2975
g11
g12
sg13
VLucida Bright
p2976
sg15
I400
sg16
g12
sg17
g12
sg18
VC:\u005cWINDOWS\u005cFonts\u005cLBRITE.TTF
p2977
sg20
g21
sbag1
(g8
g3
NtRp2978
(dp2979
g11
g12
sg13
VKozuka Mincho Pr6N
p2980
sg15
I700
sg16
g12
sg17
g12
sg18
VC:\u005cWINDOWS\u005cFonts\u005cKozMinPr6N-Bold.otf
p2981
sg20
g21
sbag1
(g8
g3
NtRp2982
(dp2983
g11
g12
sg13
VBodoni MT
p2984
sg15
I900
sg16
g12
sg17
g12
sg18
Vc:\u005cwindows\u005cfonts\u005cbod_blar.ttf
p2985
sg20
g21
sbag1
(g8
g3
NtRp2986
(dp2987
g11
g12
sg13
VCopperplate Gothic Bold
p2988
sg15
I700
sg16
g12
sg17
g12
sg18
Vc:\u005cwindows\u005cfonts\u005ccoprgtb.ttf
p2989
sg20
g21
sbag1
(g8
g3
NtRp2990
(dp2991
g11
g12
sg13
VSegoe UI
p2992
sg15
I400
sg16
g12
sg17
g12
sg18
VC:\u005cWINDOWS\u005cFonts\u005csegoeuil.ttf
p2993
sg20
g21
sbag1
(g8
g3
NtRp2994
(dp2995
g11
g12
sg13
VSegoe Script
p2996
sg15
I400
sg16
g12
sg17
g12
sg18
VC:\u005cWINDOWS\u005cFonts\u005csegoesc.ttf
p2997
sg20
g21
sbag1
(g8
g3
NtRp2998
(dp2999
g11
g12
sg13
VKozuka Gothic Pro
p3000
sg15
I400
sg16
g12
sg17
g12
sg18
VC:\u005cWINDOWS\u005cFonts\u005cKozGoPro-Regular.otf
p3001
sg20
g21
sbag1
(g8
g3
NtRp3002
(dp3003
g11
g12
sg13
VMalgun Gothic
p3004
sg15
I400
sg16
g12
sg17
g12
sg18
VC:\u005cWINDOWS\u005cFonts\u005cmalgun.ttf
p3005
sg20
g21
sbag1
(g8
g3
NtRp3006
(dp3007
g11
g12
sg13
VGill Sans MT Condensed
p3008
sg15
I400
sg16
g179
sg17
g12
sg18
Vc:\u005cwindows\u005cfonts\u005cgilc____.ttf
p3009
sg20
g21
sbag1
(g8
g3
NtRp3010
(dp3011
g11
g12
sg13
VLeelawadee UI
p3012
sg15
I400
sg16
g12
sg17
g12
sg18
VC:\u005cWINDOWS\u005cFonts\u005cLeelawUI.ttf
p3013
sg20
g21
sbag1
(g8
g3
NtRp3014
(dp3015
g11
g12
sg13
VKozuka Mincho Pr6N
p3016
sg15
I400
sg16
g12
sg17
g12
sg18
Vc:\u005cwindows\u005cfonts\u005ckozminpr6n-light.otf
p3017
sg20
g21
sbag1
(g8
g3
NtRp3018
(dp3019
g11
g12
sg13
VMistral
p3020
sg15
I400
sg16
g12
sg17
g12
sg18
Vc:\u005cwindows\u005cfonts\u005cmistral.ttf
p3021
sg20
g21
sbag1
(g8
g3
NtRp3022
(dp3023
g11
g24
sg13
VLucida Sans
p3024
sg15
I700
sg16
g12
sg17
g12
sg18
VC:\u005cWINDOWS\u005cFonts\u005cLSANSDI.TTF
p3025
sg20
g21
sbag1
(g8
g3
NtRp3026
(dp3027
g11
g12
sg13
VAlgerian
p3028
sg15
I400
sg16
g12
sg17
g12
sg18
VC:\u005cWINDOWS\u005cFonts\u005cALGER.TTF
p3029
sg20
g21
sbag1
(g8
g3
NtRp3030
(dp3031
g11
g12
sg13
VRockwell Condensed
p3032
sg15
I400
sg16
g179
sg17
g12
sg18
Vc:\u005cwindows\u005cfonts\u005crocc____.ttf
p3033
sg20
g21
sbag1
(g8
g3
NtRp3034
(dp3035
g11
g12
sg13
VLucida Sans Typewriter
p3036
sg15
I700
sg16
g12
sg17
g12
sg18
VC:\u005cWINDOWS\u005cFonts\u005cLTYPEB.TTF
p3037
sg20
g21
sbag1
(g8
g3
NtRp3038
(dp3039
g11
g12
sg13
VTekton Pro
p3040
sg15
I700
sg16
g179
sg17
g12
sg18
VC:\u005cWINDOWS\u005cFonts\u005cTektonPro-BoldCond.otf
p3041
sg20
g21
sbag1
(g8
g3
NtRp3042
(dp3043
g11
g12
sg13
VAdobe Hebrew
p3044
sg15
I700
sg16
g12
sg17
g12
sg18
VC:\u005cWINDOWS\u005cFonts\u005cAdobeHebrew-Bold.otf
p3045
sg20
g21
sbag1
(g8
g3
NtRp3046
(dp3047
g11
g24
sg13
VMinion Pro
p3048
sg15
I700
sg16
g179
sg17
g12
sg18
Vc:\u005cwindows\u005cfonts\u005cminionpro-boldcnit.otf
p3049
sg20
g21
sbag1
(g8
g3
NtRp3050
(dp3051
g11
g24
sg13
VLiberation Serif
p3052
sg15
I700
sg16
g12
sg17
g12
sg18
Vc:\u005cwindows\u005cfonts\u005cliberationserif-bolditalic.ttf
p3053
sg20
g21
sbag1
(g8
g3
NtRp3054
(dp3055
g11
g12
sg13
VTimes New Roman
p3056
sg15
I700
sg16
g12
sg17
g12
sg18
VC:\u005cWINDOWS\u005cFonts\u005ctimesbd.ttf
p3057
sg20
g21
sbag1
(g8
g3
NtRp3058
(dp3059
g11
g24
sg13
VCentury Gothic
p3060
sg15
I400
sg16
g12
sg17
g12
sg18
VC:\u005cWINDOWS\u005cFonts\u005cGOTHICI.TTF
p3061
sg20
g21
sbag1
(g8
g3
NtRp3062
(dp3063
g11
g12
sg13
VGentium Book Basic
p3064
sg15
I400
sg16
g12
sg17
g12
sg18
VC:\u005cWINDOWS\u005cFonts\u005cGenBkBasR.ttf
p3065
sg20
g21
sbag1
(g8
g3
NtRp3066
(dp3067
g11
g24
sg13
VSource Sans Pro
p3068
sg15
I700
sg16
g12
sg17
g12
sg18
VC:\u005cWINDOWS\u005cFonts\u005cSourceSansPro-SemiboldIt.ttf
p3069
sg20
g21
sbag1
(g8
g3
NtRp3070
(dp3071
g11
g24
sg13
VHarlow Solid Italic
p3072
sg15
I400
sg16
g12
sg17
g12
sg18
VC:\u005cWINDOWS\u005cFonts\u005cHARLOWSI.TTF
p3073
sg20
g21
sbag1
(g8
g3
NtRp3074
(dp3075
g11
g12
sg13
VTw Cen MT Condensed
p3076
sg15
I400
sg16
g179
sg17
g12
sg18
Vc:\u005cwindows\u005cfonts\u005ctccm____.ttf
p3077
sg20
g21
sbag1
(g8
g3
NtRp3078
(dp3079
g11
g24
sg13
VCandara
p3080
sg15
I400
sg16
g12
sg17
g12
sg18
Vc:\u005cwindows\u005cfonts\u005ccandarai.ttf
p3081
sg20
g21
sbag1
(g8
g3
NtRp3082
(dp3083
g11
g12
sg13
VComic Sans MS
p3084
sg15
I400
sg16
g12
sg17
g12
sg18
Vc:\u005cwindows\u005cfonts\u005ccomic.ttf
p3085
sg20
g21
sbag1
(g8
g3
NtRp3086
(dp3087
g11
g12
sg13
VKozuka Gothic Pro
p3088
sg15
I700
sg16
g12
sg17
g12
sg18
Vc:\u005cwindows\u005cfonts\u005ckozgopro-heavy.otf
p3089
sg20
g21
sbag1
(g8
g3
NtRp3090
(dp3091
g11
g12
sg13
VLiberation Sans
p3092
sg15
I700
sg16
g12
sg17
g12
sg18
VC:\u005cWINDOWS\u005cFonts\u005cLiberationSans-Bold.ttf
p3093
sg20
g21
sbag1
(g8
g3
NtRp3094
(dp3095
g11
g12
sg13
VLinux Libertine G
p3096
sg15
I400
sg16
g12
sg17
g12
sg18
Vc:\u005cwindows\u005cfonts\u005clinlibertine_r_g.ttf
p3097
sg20
g21
sbag1
(g8
g3
NtRp3098
(dp3099
g11
g12
sg13
VSource Sans Pro
p3100
sg15
I700
sg16
g12
sg17
g12
sg18
Vc:\u005cwindows\u005cfonts\u005csourcesanspro-bold.ttf
p3101
sg20
g21
sbag1
(g8
g3
NtRp3102
(dp3103
g11
g24
sg13
VDejaVu Serif
p3104
sg15
I700
sg16
g12
sg17
g12
sg18
VC:\u005cWINDOWS\u005cFonts\u005cDejaVuSerif-BoldItalic.ttf
p3105
sg20
g21
sbag1
(g8
g3
NtRp3106
(dp3107
g11
g12
sg13
VCaladea
p3108
sg15
I700
sg16
g12
sg17
g12
sg18
VC:\u005cWINDOWS\u005cFonts\u005cCaladea-Bold.ttf
p3109
sg20
g21
sbag1
(g8
g3
NtRp3110
(dp3111
g11
g12
sg13
VCentury Gothic
p3112
sg15
I700
sg16
g12
sg17
g12
sg18
Vc:\u005cwindows\u005cfonts\u005cgothicb.ttf
p3113
sg20
g21
sbag1
(g8
g3
NtRp3114
(dp3115
g11
g12
sg13
VGill Sans Ultra Bold Condensed
p3116
sg15
I700
sg16
g179
sg17
g12
sg18
VC:\u005cWINDOWS\u005cFonts\u005cGILLUBCD.TTF
p3117
sg20
g21
sbag1
(g8
g3
NtRp3118
(dp3119
g11
g12
sg13
VCentury Schoolbook
p3120
sg15
I400
sg16
g12
sg17
g12
sg18
VC:\u005cWINDOWS\u005cFonts\u005cCENSCBK.TTF
p3121
sg20
g21
sbag1
(g8
g3
NtRp3122
(dp3123
g11
g12
sg13
VAdobe Garamond Pro
p3124
sg15
I700
sg16
g12
sg17
g12
sg18
Vc:\u005cwindows\u005cfonts\u005cagaramondpro-bold.otf
p3125
sg20
g21
sbag1
(g8
g3
NtRp3126
(dp3127
g11
g12
sg13
VMinion Pro
p3128
sg15
I500
sg16
g12
sg17
g12
sg18
Vc:\u005cwindows\u005cfonts\u005cminionpro-medium.otf
p3129
sg20
g21
sbag1
(g8
g3
NtRp3130
(dp3131
g11
g12
sg13
VSource Sans Pro
p3132
sg15
I200
sg16
g12
sg17
g12
sg18
Vc:\u005cwindows\u005cfonts\u005csourcesanspro-light.ttf
p3133
sg20
g21
sbag1
(g8
g3
NtRp3134
(dp3135
g11
g12
sg13
VAdobe Caslon Pro
p3136
sg15
I400
sg16
g12
sg17
g12
sg18
Vc:\u005cwindows\u005cfonts\u005cacaslonpro-regular.otf
p3137
sg20
g21
sbag1
(g8
g3
NtRp3138
(dp3139
g11
g12
sg13
VBookman Old Style
p3140
sg15
I400
sg16
g12
sg17
g12
sg18
Vc:\u005cwindows\u005cfonts\u005cbookos.ttf
p3141
sg20
g21
sbag1
(g8
g3
NtRp3142
(dp3143
g11
g24
sg13
VLiberation Serif
p3144
sg15
I700
sg16
g12
sg17
g12
sg18
VC:\u005cWINDOWS\u005cFonts\u005cLiberationSerif-BoldItalic.ttf
p3145
sg20
g21
sbag1
(g8
g3
NtRp3146
(dp3147
g11
g12
sg13
VMaiandra GD
p3148
sg15
I400
sg16
g12
sg17
g12
sg18
VC:\u005cWINDOWS\u005cFonts\u005cMAIAN.TTF
p3149
sg20
g21
sbag1
(g8
g3
NtRp3150
(dp3151
g11
g24
sg13
VChaparral Pro
p3152
sg15
I200
sg16
g12
sg17
g12
sg18
Vc:\u005cwindows\u005cfonts\u005cchaparralpro-lightit.otf
p3153
sg20
g21
sbag1
(g8
g3
NtRp3154
(dp3155
g11
g12
sg13
VPerpetua
p3156
sg15
I700
sg16
g12
sg17
g12
sg18
Vc:\u005cwindows\u005cfonts\u005cperb____.ttf
p3157
sg20
g21
sbag1
(g8
g3
NtRp3158
(dp3159
g11
g24
sg13
VCentury Schoolbook
p3160
sg15
I700
sg16
g12
sg17
g12
sg18
Vc:\u005cwindows\u005cfonts\u005cschlbkbi.ttf
p3161
sg20
g21
sbag1
(g8
g3
NtRp3162
(dp3163
g11
g24
sg13
VPT Serif
p3164
sg15
I400
sg16
g12
sg17
g12
sg18
VC:\u005cWINDOWS\u005cFonts\u005cPT_Serif-Web-Italic.ttf
p3165
sg20
g21
sbag1
(g8
g3
NtRp3166
(dp3167
g11
g12
sg13
VBrush Script Std
p3168
sg15
I500
sg16
g12
sg17
g12
sg18
Vc:\u005cwindows\u005cfonts\u005cbrushscriptstd.otf
p3169
sg20
g21
sbag1
(g8
g3
NtRp3170
(dp3171
g11
g12
sg13
VLucida Sans
p3172
sg15
I400
sg16
g12
sg17
g12
sg18
VC:\u005cWINDOWS\u005cFonts\u005cLSANS.TTF
p3173
sg20
g21
sbag1
(g8
g3
NtRp3174
(dp3175
g11
g12
sg13
VKozuka Gothic Pro
p3176
sg15
I400
sg16
g12
sg17
g12
sg18
Vc:\u005cwindows\u005cfonts\u005ckozgopro-regular.otf
p3177
sg20
g21
sbag1
(g8
g3
NtRp3178
(dp3179
g11
g24
sg13
VArial
p3180
sg15
I700
sg16
g179
sg17
g12
sg18
Vc:\u005cwindows\u005cfonts\u005carialnbi.ttf
p3181
sg20
g21
sbag1
(g8
g3
NtRp3182
(dp3183
g11
g24
sg13
VMinion Pro
p3184
sg15
I400
sg16
g12
sg17
g12
sg18
VC:\u005cWINDOWS\u005cFonts\u005cMinionPro-It.otf
p3185
sg20
g21
sbag1
(g8
g3
NtRp3186
(dp3187
g11
g12
sg13
VBodoni MT
p3188
sg15
I700
sg16
g179
sg17
g12
sg18
Vc:\u005cwindows\u005cfonts\u005cbod_cb.ttf
p3189
sg20
g21
sbag1
(g8
g3
NtRp3190
(dp3191
g11
g12
sg13
VParchment
p3192
sg15
I400
sg16
g12
sg17
g12
sg18
Vc:\u005cwindows\u005cfonts\u005cparchm.ttf
p3193
sg20
g21
sbag1
(g8
g3
NtRp3194
(dp3195
g11
g24
sg13
VHarlow Solid Italic
p3196
sg15
I400
sg16
g12
sg17
g12
sg18
Vc:\u005cwindows\u005cfonts\u005charlowsi.ttf
p3197
sg20
g21
sbag1
(g8
g3
NtRp3198
(dp3199
g11
g24
sg13
VCaladea
p3200
sg15
I400
sg16
g12
sg17
g12
sg18
VC:\u005cWINDOWS\u005cFonts\u005cCaladea-Italic.ttf
p3201
sg20
g21
sbag1
(g8
g3
NtRp3202
(dp3203
g11
g12
sg13
VChaparral Pro
p3204
sg15
I700
sg16
g12
sg17
g12
sg18
Vc:\u005cwindows\u005cfonts\u005cchaparralpro-bold.otf
p3205
sg20
g21
sbag1
(g8
g3
NtRp3206
(dp3207
g11
g24
sg13
VAdobe Devanagari
p3208
sg15
I400
sg16
g12
sg17
g12
sg18
Vc:\u005cwindows\u005cfonts\u005cadobedevanagari-italic.otf
p3209
sg20
g21
sbag1
(g8
g3
NtRp3210
(dp3211
g11
g24
sg13
VGentium Basic
p3212
sg15
I400
sg16
g12
sg17
g12
sg18
Vc:\u005cwindows\u005cfonts\u005cgenbasi.ttf
p3213
sg20
g21
sbag1
(g8
g3
NtRp3214
(dp3215
g11
g12
sg13
VCandara
p3216
sg15
I700
sg16
g12
sg17
g12
sg18
VC:\u005cWINDOWS\u005cFonts\u005cCandarab.ttf
p3217
sg20
g21
sbag1
(g8
g3
NtRp3218
(dp3219
g11
g12
sg13
VSegoe WP
p3220
sg15
I700
sg16
g12
sg17
g12
sg18
VC:\u005cWINDOWS\u005cFonts\u005cSegoeWP-Bold.ttf
p3221
sg20
g21
sbag1
(g8
g3
NtRp3222
(dp3223
g11
g12
sg13
VShowcard Gothic
p3224
sg15
I400
sg16
g12
sg17
g12
sg18
Vc:\u005cwindows\u005cfonts\u005cshowg.ttf
p3225
sg20
g21
sbag1
(g8
g3
NtRp3226
(dp3227
g11
g24
sg13
VArial
p3228
sg15
I400
sg16
g179
sg17
g12
sg18
Vc:\u005cwindows\u005cfonts\u005carialni.ttf
p3229
sg20
g21
sbag1
(g8
g3
NtRp3230
(dp3231
g11
g24
sg13
VCooper Std
p3232
sg15
I900
sg16
g12
sg17
g12
sg18
VC:\u005cWINDOWS\u005cFonts\u005cCooperBlackStd-Italic.otf
p3233
sg20
g21
sbag1
(g8
g3
NtRp3234
(dp3235
g11
g12
sg13
VTekton Pro
p3236
sg15
I700
sg16
g12
sg17
g12
sg18
VC:\u005cWINDOWS\u005cFonts\u005cTektonPro-BoldExt.otf
p3237
sg20
g21
sbag1
(g8
g3
NtRp3238
(dp3239
g11
g12
sg13
VMyriad Pro
p3240
sg15
I700
sg16
g12
sg17
g12
sg18
Vc:\u005cwindows\u005cfonts\u005cmyriadpro-bold.otf
p3241
sg20
g21
sbag1
(g8
g3
NtRp3242
(dp3243
g11
g12
sg13
VAdobe Caslon Pro
p3244
sg15
I700
sg16
g12
sg17
g12
sg18
VC:\u005cWINDOWS\u005cFonts\u005cACaslonPro-Bold.otf
p3245
sg20
g21
sbag1
(g8
g3
NtRp3246
(dp3247
g11
g12
sg13
VElephant
p3248
sg15
I400
sg16
g12
sg17
g12
sg18
VC:\u005cWINDOWS\u005cFonts\u005cELEPHNT.TTF
p3249
sg20
g21
sbag1
(g8
g3
NtRp3250
(dp3251
g11
g24
sg13
VCentury Gothic
p3252
sg15
I400
sg16
g12
sg17
g12
sg18
Vc:\u005cwindows\u005cfonts\u005cgothici.ttf
p3253
sg20
g21
sbag1
(g8
g3
NtRp3254
(dp3255
g11
g12
sg13
VGoudy Old Style
p3256
sg15
I700
sg16
g12
sg17
g12
sg18
Vc:\u005cwindows\u005cfonts\u005cgoudosb.ttf
p3257
sg20
g21
sbag1
(g8
g3
NtRp3258
(dp3259
g11
g24
sg13
VLetter Gothic Std
p3260
sg15
I400
sg16
g12
sg17
g12
sg18
VC:\u005cWINDOWS\u005cFonts\u005cLetterGothicStd-Slanted.otf
p3261
sg20
g21
sbag1
(g8
g3
NtRp3262
(dp3263
g11
g12
sg13
VTempus Sans ITC
p3264
sg15
I400
sg16
g12
sg17
g12
sg18
VC:\u005cWINDOWS\u005cFonts\u005cTEMPSITC.TTF
p3265
sg20
g21
sbag1
(g8
g3
NtRp3266
(dp3267
g11
g12
sg13
VDejaVu Sans
p3268
sg15
I700
sg16
g12
sg17
g12
sg18
Vc:\u005cwindows\u005cfonts\u005cdejavusans-bold.ttf
p3269
sg20
g21
sbag1
(g8
g3
NtRp3270
(dp3271
g11
g12
sg13
VCalifornian FB
p3272
sg15
I700
sg16
g12
sg17
g12
sg18
VC:\u005cWINDOWS\u005cFonts\u005cCALIFB.TTF
p3273
sg20
g21
sbag1
(g8
g3
NtRp3274
(dp3275
g11
g24
sg13
VLiberation Serif
p3276
sg15
I400
sg16
g12
sg17
g12
sg18
VC:\u005cWINDOWS\u005cFonts\u005cLiberationSerif-Italic.ttf
p3277
sg20
g21
sbag1
(g8
g3
NtRp3278
(dp3279
g11
g37
sg13
VDejaVu Sans
p3280
sg15
I700
sg16
g12
sg17
g12
sg18
Vc:\u005cwindows\u005cfonts\u005cdejavusans-boldoblique.ttf
p3281
sg20
g21
sbag1
(g8
g3
NtRp3282
(dp3283
g11
g12
sg13
VEras Light ITC
p3284
sg15
I200
sg16
g12
sg17
g12
sg18
VC:\u005cWINDOWS\u005cFonts\u005cERASLGHT.TTF
p3285
sg20
g21
sbag1
(g8
g3
NtRp3286
(dp3287
g11
g24
sg13
VPT Serif
p3288
sg15
I700
sg16
g12
sg17
g12
sg18
Vc:\u005cwindows\u005cfonts\u005cpt_serif-web-bolditalic.ttf
p3289
sg20
g21
sbag1
(g8
g3
NtRp3290
(dp3291
g11
g12
sg13
VForte
p3292
sg15
I400
sg16
g12
sg17
g12
sg18
Vc:\u005cwindows\u005cfonts\u005cforte.ttf
p3293
sg20
g21
sbag1
(g8
g3
NtRp3294
(dp3295
g11
g12
sg13
VNueva Std
p3296
sg15
I700
sg16
g179
sg17
g12
sg18
Vc:\u005cwindows\u005cfonts\u005cnuevastd-boldcond.otf
p3297
sg20
g21
sbag1
(g8
g3
NtRp3298
(dp3299
g11
g12
sg13
VTekton Pro
p3300
sg15
I700
sg16
g179
sg17
g12
sg18
Vc:\u005cwindows\u005cfonts\u005ctektonpro-boldcond.otf
p3301
sg20
g21
sbag1
(g8
g3
NtRp3302
(dp3303
g11
g24
sg13
VLetter Gothic Std
p3304
sg15
I400
sg16
g12
sg17
g12
sg18
Vc:\u005cwindows\u005cfonts\u005clettergothicstd-slanted.otf
p3305
sg20
g21
sbag1
(g8
g3
NtRp3306
(dp3307
g11
g12
sg13
VDejaVu Serif
p3308
sg15
I700
sg16
g179
sg17
g12
sg18
Vc:\u005cwindows\u005cfonts\u005cdejavuserifcondensed-bold.ttf
p3309
sg20
g21
sbag1
(g8
g3
NtRp3310
(dp3311
g11
g12
sg13
VKozuka Gothic Pr6N
p3312
sg15
I400
sg16
g12
sg17
g12
sg18
Vc:\u005cwindows\u005cfonts\u005ckozgopr6n-light.otf
p3313
sg20
g21
sbag1
(g8
g3
NtRp3314
(dp3315
g11
g24
sg13
VTimes New Roman
p3316
sg15
I500
sg16
g12
sg17
g12
sg18
Vc:\u005cwindows\u005cfonts\u005ctimesi.ttf
p3317
sg20
g21
sbag1
(g8
g3
NtRp3318
(dp3319
g11
g12
sg13
VTw Cen MT Condensed Extra Bold
p3320
sg15
I700
sg16
g179
sg17
g12
sg18
Vc:\u005cwindows\u005cfonts\u005ctcceb.ttf
p3321
sg20
g21
sbag1
(g8
g3
NtRp3322
(dp3323
g11
g37
sg13
VDejaVu Sans
p3324
sg15
I700
sg16
g179
sg17
g12
sg18
Vc:\u005cwindows\u005cfonts\u005cdejavusanscondensed-boldoblique.ttf
p3325
sg20
g21
sbag1
(g8
g3
NtRp3326
(dp3327
g11
g24
sg13
VAdobe Caslon Pro
p3328
sg15
I400
sg16
g12
sg17
g12
sg18
Vc:\u005cwindows\u005cfonts\u005cacaslonpro-italic.otf
p3329
sg20
g21
sbag1
(g8
g3
NtRp3330
(dp3331
g11
g12
sg13
VKozuka Mincho Pro
p3332
sg15
I400
sg16
g12
sg17
g12
sg18
VC:\u005cWINDOWS\u005cFonts\u005cKozMinPro-Medium.otf
p3333
sg20
g21
sbag1
(g8
g3
NtRp3334
(dp3335
g11
g12
sg13
VStencil
p3336
sg15
I400
sg16
g12
sg17
g12
sg18
Vc:\u005cwindows\u005cfonts\u005cstencil.ttf
p3337
sg20
g21
sbag1
(g8
g3
NtRp3338
(dp3339
g11
g24
sg13
VAdobe Caslon Pro
p3340
sg15
I700
sg16
g12
sg17
g12
sg18
Vc:\u005cwindows\u005cfonts\u005cacaslonpro-bolditalic.otf
p3341
sg20
g21
sbag1
(g8
g3
NtRp3342
(dp3343
g11
g12
sg13
VLinux Libertine Display G
p3344
sg15
I400
sg16
g12
sg17
g12
sg18
VC:\u005cWINDOWS\u005cFonts\u005cLinLibertine_DR_G.ttf
p3345
sg20
g21
sbag1
(g8
g3
NtRp3346
(dp3347
g11
g12
sg13
VSnap ITC
p3348
sg15
I400
sg16
g12
sg17
g12
sg18
Vc:\u005cwindows\u005cfonts\u005csnap____.ttf
p3349
sg20
g21
sbag1
(g8
g3
NtRp3350
(dp3351
g11
g24
sg13
VCandara
p3352
sg15
I700
sg16
g12
sg17
g12
sg18
Vc:\u005cwindows\u005cfonts\u005ccandaraz.ttf
p3353
sg20
g21
sbag1
(g8
g3
NtRp3354
(dp3355
g11
g12
sg13
VAgency FB
p3356
sg15
I400
sg16
g12
sg17
g12
sg18
Vc:\u005cwindows\u005cfonts\u005cagencyr.ttf
p3357
sg20
g21
sbag1
(g8
g3
NtRp3358
(dp3359
g11
g12
sg13
VEdwardian Script ITC
p3360
sg15
I400
sg16
g12
sg17
g12
sg18
Vc:\u005cwindows\u005cfonts\u005citcedscr.ttf
p3361
sg20
g21
sbag1
(g8
g3
NtRp3362
(dp3363
g11
g12
sg13
VGoudy Old Style
p3364
sg15
I700
sg16
g12
sg17
g12
sg18
VC:\u005cWINDOWS\u005cFonts\u005cGOUDOSB.TTF
p3365
sg20
g21
sbag1
(g8
g3
NtRp3366
(dp3367
g11
g12
sg13
VLiberation Sans Narrow
p3368
sg15
I700
sg16
g179
sg17
g12
sg18
VC:\u005cWINDOWS\u005cFonts\u005cLiberationSansNarrow-Bold.ttf
p3369
sg20
g21
sbag1
(g8
g3
NtRp3370
(dp3371
g11
g24
sg13
VDejaVu Serif
p3372
sg15
I400
sg16
g12
sg17
g12
sg18
VC:\u005cWINDOWS\u005cFonts\u005cDejaVuSerif-Italic.ttf
p3373
sg20
g21
sbag1
(g8
g3
NtRp3374
(dp3375
g11
g12
sg13
VBell MT
p3376
sg15
I700
sg16
g12
sg17
g12
sg18
VC:\u005cWINDOWS\u005cFonts\u005cBELLB.TTF
p3377
sg20
g21
sbag1
(g8
g3
NtRp3378
(dp3379
g11
g12
sg13
VMicrosoft NeoGothic
p3380
sg15
I700
sg16
g12
sg17
g12
sg18
VC:\u005cWINDOWS\u005cFonts\u005cMSNeoGothic-Bold.ttf
p3381
sg20
g21
sbag1
(g8
g3
NtRp3382
(dp3383
g11
g12
sg13
VMyriad Hebrew
p3384
sg15
I400
sg16
g12
sg17
g12
sg18
VC:\u005cWINDOWS\u005cFonts\u005cMyriadHebrew-Regular.otf
p3385
sg20
g21
sbag1
(g8
g3
NtRp3386
(dp3387
g11
g24
sg13
VMyriad Arabic
p3388
sg15
I400
sg16
g12
sg17
g12
sg18
Vc:\u005cwindows\u005cfonts\u005cmyriadarabic-it.otf
p3389
sg20
g21
sbag1
(g8
g3
NtRp3390
(dp3391
g11
g24
sg13
VSource Sans Pro
p3392
sg15
I900
sg16
g12
sg17
g12
sg18
Vc:\u005cwindows\u005cfonts\u005csourcesanspro-blackit.ttf
p3393
sg20
g21
sbag1
(g8
g3
NtRp3394
(dp3395
g11
g12
sg13
VMicrosoft New Tai Lue
p3396
sg15
I700
sg16
g12
sg17
g12
sg18
VC:\u005cWINDOWS\u005cFonts\u005cntailub.ttf
p3397
sg20
g21
sbag1
(g8
g3
NtRp3398
(dp3399
g11
g12
sg13
VGaramond
p3400
sg15
I700
sg16
g12
sg17
g12
sg18
VC:\u005cWINDOWS\u005cFonts\u005cGARABD.TTF
p3401
sg20
g21
sbag1
(g8
g3
NtRp3402
(dp3403
g11
g12
sg13
VBernard MT Condensed
p3404
sg15
I400
sg16
g179
sg17
g12
sg18
VC:\u005cWINDOWS\u005cFonts\u005cBERNHC.TTF
p3405
sg20
g21
sbag1
(g8
g3
NtRp3406
(dp3407
g11
g24
sg13
VMyriad Pro
p3408
sg15
I400
sg16
g179
sg17
g12
sg18
VC:\u005cWINDOWS\u005cFonts\u005cMyriadPro-CondIt.otf
p3409
sg20
g21
sbag1
(g8
g3
NtRp3410
(dp3411
g11
g24
sg13
VFranklin Gothic Book
p3412
sg15
I400
sg16
g12
sg17
g12
sg18
VC:\u005cWINDOWS\u005cFonts\u005cFRABKIT.TTF
p3413
sg20
g21
sbag1
(g8
g3
NtRp3414
(dp3415
g11
g37
sg13
VTekton Pro
p3416
sg15
I700
sg16
g12
sg17
g12
sg18
VC:\u005cWINDOWS\u005cFonts\u005cTektonPro-BoldObl.otf
p3417
sg20
g21
sbag1
(g8
g3
NtRp3418
(dp3419
g11
g12
sg13
VEras Medium ITC
p3420
sg15
I500
sg16
g12
sg17
g12
sg18
VC:\u005cWINDOWS\u005cFonts\u005cERASMD.TTF
p3421
sg20
g21
sbag1
(g8
g3
NtRp3422
(dp3423
g11
g24
sg13
VBodoni MT
p3424
sg15
I900
sg16
g12
sg17
g12
sg18
VC:\u005cWINDOWS\u005cFonts\u005cBOD_BLAI.TTF
p3425
sg20
g21
sbag1
(g8
g3
NtRp3426
(dp3427
g11
g12
sg13
VMinion Pro
p3428
sg15
I700
sg16
g12
sg17
g12
sg18
Vc:\u005cwindows\u005cfonts\u005cminionpro-semibold.otf
p3429
sg20
g21
sbag1
(g8
g3
NtRp3430
(dp3431
g11
g12
sg13
VAdobe Kaiti Std
p3432
sg15
I400
sg16
g12
sg17
g12
sg18
Vc:\u005cwindows\u005cfonts\u005cadobekaitistd-regular.otf
p3433
sg20
g21
sbag1
(g8
g3
NtRp3434
(dp3435
g11
g12
sg13
VAdobe Garamond Pro
p3436
sg15
I400
sg16
g12
sg17
g12
sg18
Vc:\u005cwindows\u005cfonts\u005cagaramondpro-regular.otf
p3437
sg20
g21
sbag1
(g8
g3
NtRp3438
(dp3439
g11
g24
sg13
VAdobe Arabic
p3440
sg15
I700
sg16
g12
sg17
g12
sg18
VC:\u005cWINDOWS\u005cFonts\u005cAdobeArabic-BoldItalic.otf
p3441
sg20
g21
sbag1
(g8
g3
NtRp3442
(dp3443
g11
g24
sg13
VAdobe Hebrew
p3444
sg15
I400
sg16
g12
sg17
g12
sg18
Vc:\u005cwindows\u005cfonts\u005cadobehebrew-italic.otf
p3445
sg20
g21
sbag1
(g8
g3
NtRp3446
(dp3447
g11
g12
sg13
VHarrington
p3448
sg15
I400
sg16
g12
sg17
g12
sg18
VC:\u005cWINDOWS\u005cFonts\u005cHARNGTON.TTF
p3449
sg20
g21
sbag1
(g8
g3
NtRp3450
(dp3451
g11
g12
sg13
VOpen Sans
p3452
sg15
I700
sg16
g12
sg17
g12
sg18
Vc:\u005cwindows\u005cfonts\u005copensans-bold.ttf
p3453
sg20
g21
sbag1
(g8
g3
NtRp3454
(dp3455
g11
g24
sg13
VSource Sans Pro
p3456
sg15
I400
sg16
g12
sg17
g12
sg18
Vc:\u005cwindows\u005cfonts\u005csourcesanspro-it.ttf
p3457
sg20
g21
sbag1
(g8
g3
NtRp3458
(dp3459
g11
g12
sg13
VEras Demi ITC
p3460
sg15
I600
sg16
g12
sg17
g12
sg18
Vc:\u005cwindows\u005cfonts\u005cerasdemi.ttf
p3461
sg20
g21
sbag1
(g8
g3
NtRp3462
(dp3463
g11
g24
sg13
VAdobe Hebrew
p3464
sg15
I700
sg16
g12
sg17
g12
sg18
Vc:\u005cwindows\u005cfonts\u005cadobehebrew-bolditalic.otf
p3465
sg20
g21
sbag1
(g8
g3
NtRp3466
(dp3467
g11
g12
sg13
VLucida Sans
p3468
sg15
I700
sg16
g12
sg17
g12
sg18
Vc:\u005cwindows\u005cfonts\u005clsansd.ttf
p3469
sg20
g21
sbag1
(g8
g3
NtRp3470
(dp3471
g11
g12
sg13
VDejaVu Sans Mono
p3472
sg15
I400
sg16
g12
sg17
g12
sg18
VC:\u005cWINDOWS\u005cFonts\u005cDejaVuSansMono.ttf
p3473
sg20
g21
sbag1
(g8
g3
NtRp3474
(dp3475
g11
g12
sg13
VKozuka Mincho Pr6N
p3476
sg15
I700
sg16
g12
sg17
g12
sg18
Vc:\u005cwindows\u005cfonts\u005ckozminpr6n-bold.otf
p3477
sg20
g21
sbag1
(g8
g3
NtRp3478
(dp3479
g11
g12
sg13
VNirmala UI
p3480
sg15
I200
sg16
g12
sg17
g12
sg18
VC:\u005cWINDOWS\u005cFonts\u005cNirmalaS.ttf
p3481
sg20
g21
sbag1
(g8
g3
NtRp3482
(dp3483
g11
g12
sg13
VChaparral Pro
p3484
sg15
I700
sg16
g12
sg17
g12
sg18
VC:\u005cWINDOWS\u005cFonts\u005cChaparralPro-Bold.otf
p3485
sg20
g21
sbag1
(g8
g3
NtRp3486
(dp3487
g11
g12
sg13
VBroadway
p3488
sg15
I400
sg16
g12
sg17
g12
sg18
VC:\u005cWINDOWS\u005cFonts\u005cBROADW.TTF
p3489
sg20
g21
sbag1
(g8
g3
NtRp3490
(dp3491
g11
g24
sg13
VLucida Bright
p3492
sg15
I400
sg16
g12
sg17
g12
sg18
Vc:\u005cwindows\u005cfonts\u005clbritei.ttf
p3493
sg20
g21
sbag1
(g8
g3
NtRp3494
(dp3495
g11
g12
sg13
VAdobe Arabic
p3496
sg15
I400
sg16
g12
sg17
g12
sg18
VC:\u005cWINDOWS\u005cFonts\u005cAdobeArabic-Regular.otf
p3497
sg20
g21
sbag1
(g8
g3
NtRp3498
(dp3499
g11
g24
sg13
VHigh Tower Text
p3500
sg15
I400
sg16
g12
sg17
g12
sg18
Vc:\u005cwindows\u005cfonts\u005chtowerti.ttf
p3501
sg20
g21
sbag1
(g8
g3
NtRp3502
(dp3503
g11
g12
sg13
VMyriad Pro
p3504
sg15
I400
sg16
g12
sg17
g12
sg18
Vc:\u005cwindows\u005cfonts\u005cmyriadpro-regular.otf
p3505
sg20
g21
sbag1
(g8
g3
NtRp3506
(dp3507
g11
g12
sg13
VBerlin Sans FB
p3508
sg15
I700
sg16
g12
sg17
g12
sg18
VC:\u005cWINDOWS\u005cFonts\u005cBRLNSB.TTF
p3509
sg20
g21
sbag1
(g8
g3
NtRp3510
(dp3511
g11
g12
sg13
VCaladea
p3512
sg15
I700
sg16
g12
sg17
g12
sg18
Vc:\u005cwindows\u005cfonts\u005ccaladea-bold.ttf
p3513
sg20
g21
sbag1
(g8
g3
NtRp3514
(dp3515
g11
g12
sg13
VLucida Bright
p3516
sg15
I700
sg16
g12
sg17
g12
sg18
Vc:\u005cwindows\u005cfonts\u005clbrited.ttf
p3517
sg20
g21
sbag1
(g8
g3
NtRp3518
(dp3519
g11
g24
sg13
VRockwell
p3520
sg15
I700
sg16
g12
sg17
g12
sg18
VC:\u005cWINDOWS\u005cFonts\u005cROCKBI.TTF
p3521
sg20
g21
sbag1
(g8
g3
NtRp3522
(dp3523
g11
g12
sg13
VAdobe Fangsong Std
p3524
sg15
I400
sg16
g12
sg17
g12
sg18
VC:\u005cWINDOWS\u005cFonts\u005cAdobeFangsongStd-Regular.otf
p3525
sg20
g21
sbag1
(g8
g3
NtRp3526
(dp3527
g11
g12
sg13
VSketchFlow Print
p3528
sg15
I400
sg16
g12
sg17
g12
sg18
Vc:\u005cwindows\u005cfonts\u005csketchflow print.ttf
p3529
sg20
g21
sbag1
(g8
g3
NtRp3530
(dp3531
g11
g12
sg13
VDejaVu Sans
p3532
sg15
I200
sg16
g12
sg17
g12
sg18
Vc:\u005cwindows\u005cfonts\u005cdejavusans-extralight.ttf
p3533
sg20
g21
sbag1
(g8
g3
NtRp3534
(dp3535
g11
g24
sg13
VBookman Old Style
p3536
sg15
I700
sg16
g12
sg17
g12
sg18
VC:\u005cWINDOWS\u005cFonts\u005cBOOKOSBI.TTF
p3537
sg20
g21
sbag1
(g8
g3
NtRp3538
(dp3539
g11
g12
sg13
VPrestige Elite Std
p3540
sg15
I700
sg16
g12
sg17
g12
sg18
Vc:\u005cwindows\u005cfonts\u005cprestigeelitestd-bd.otf
p3541
sg20
g21
sbag1
(g8
g3
NtRp3542
(dp3543
g11
g12
sg13
VBradley Hand ITC
p3544
sg15
I400
sg16
g12
sg17
g12
sg18
Vc:\u005cwindows\u005cfonts\u005cbradhitc.ttf
p3545
sg20
g21
sbag1
(g8
g3
NtRp3546
(dp3547
g11
g37
sg13
VDejaVu Sans
p3548
sg15
I400
sg16
g12
sg17
g12
sg18
VC:\u005cWINDOWS\u005cFonts\u005cDejaVuSans-Oblique.ttf
p3549
sg20
g21
sbag1
(g8
g3
NtRp3550
(dp3551
g11
g12
sg13
VSource Sans Pro
p3552
sg15
I400
sg16
g12
sg17
g12
sg18
Vc:\u005cwindows\u005cfonts\u005csourcesanspro-regular.ttf
p3553
sg20
g21
sbag1
(g8
g3
NtRp3554
(dp3555
g11
g24
sg13
VAdobe Garamond Pro
p3556
sg15
I700
sg16
g12
sg17
g12
sg18
Vc:\u005cwindows\u005cfonts\u005cagaramondpro-bolditalic.otf
p3557
sg20
g21
sbag1
(g8
g3
NtRp3558
(dp3559
g11
g12
sg13
VArial
p3560
sg15
I400
sg16
g179
sg17
g12
sg18
VC:\u005cWINDOWS\u005cFonts\u005cARIALN.TTF
p3561
sg20
g21
sbag1
(g8
g3
NtRp3562
(dp3563
g11
g12
sg13
VMyriad Pro
p3564
sg15
I400
sg16
g179
sg17
g12
sg18
Vc:\u005cwindows\u005cfonts\u005cmyriadpro-cond.otf
p3565
sg20
g21
sbag1
(g8
g3
NtRp3566
(dp3567
g11
g12
sg13
VPT Serif
p3568
sg15
I400
sg16
g12
sg17
g12
sg18
VC:\u005cWINDOWS\u005cFonts\u005cPT_Serif-Web-Regular.ttf
p3569
sg20
g21
sbag1
(g8
g3
NtRp3570
(dp3571
g11
g12
sg13
VBodoni MT
p3572
sg15
I700
sg16
g179
sg17
g12
sg18
VC:\u005cWINDOWS\u005cFonts\u005cBOD_CB.TTF
p3573
sg20
g21
sbag1
(g8
g3
NtRp3574
(dp3575
g11
g12
sg13
VSegoe WP
p3576
sg15
I400
sg16
g12
sg17
g12
sg18
Vc:\u005cwindows\u005cfonts\u005csegoewp-semilight.ttf
p3577
sg20
g21
sbag1
(g8
g3
NtRp3578
(dp3579
g11
g12
sg13
VKozuka Gothic Pr6N
p3580
sg15
I400
sg16
g12
sg17
g12
sg18
VC:\u005cWINDOWS\u005cFonts\u005cKozGoPr6N-Medium.otf
p3581
sg20
g21
sbag1
(g8
g3
NtRp3582
(dp3583
g11
g24
sg13
VAdobe Devanagari
p3584
sg15
I700
sg16
g12
sg17
g12
sg18
Vc:\u005cwindows\u005cfonts\u005cadobedevanagari-bolditalic.otf
p3585
sg20
g21
sbag1
(g8
g3
NtRp3586
(dp3587
g11
g12
sg13
VEdwardian Script ITC
p3588
sg15
I400
sg16
g12
sg17
g12
sg18
VC:\u005cWINDOWS\u005cFonts\u005cITCEDSCR.TTF
p3589
sg20
g21
sbag1
(g8
g3
NtRp3590
(dp3591
g11
g12
sg13
VVladimir Script
p3592
sg15
I400
sg16
g12
sg17
g12
sg18
Vc:\u005cwindows\u005cfonts\u005cvladimir.ttf
p3593
sg20
g21
sbag1
(g8
g3
NtRp3594
(dp3595
g11
g12
sg13
VEras Bold ITC
p3596
sg15
I700
sg16
g12
sg17
g12
sg18
Vc:\u005cwindows\u005cfonts\u005cerasbd.ttf
p3597
sg20
g21
sbag1
(g8
g3
NtRp3598
(dp3599
g11
g12
sg13
VBell MT
p3600
sg15
I700
sg16
g12
sg17
g12
sg18
Vc:\u005cwindows\u005cfonts\u005cbellb.ttf
p3601
sg20
g21
sbag1
(g8
g3
NtRp3602
(dp3603
g11
g12
sg13
VKozuka Gothic Pr6N
p3604
sg15
I700
sg16
g12
sg17
g12
sg18
Vc:\u005cwindows\u005cfonts\u005ckozgopr6n-bold.otf
p3605
sg20
g21
sbag1
(g8
g3
NtRp3606
(dp3607
g11
g12
sg13
VSegoe WP
p3608
sg15
I400
sg16
g12
sg17
g12
sg18
VC:\u005cWINDOWS\u005cFonts\u005cSegoeWP-Black.ttf
p3609
sg20
g21
sbag1
(g8
g3
NtRp3610
(dp3611
g11
g24
sg13
VChaparral Pro
p3612
sg15
I700
sg16
g12
sg17
g12
sg18
VC:\u005cWINDOWS\u005cFonts\u005cChaparralPro-BoldIt.otf
p3613
sg20
g21
sbag1
(g8
g3
NtRp3614
(dp3615
g11
g12
sg13
VMicrosoft NeoGothic
p3616
sg15
I700
sg16
g12
sg17
g12
sg18
Vc:\u005cwindows\u005cfonts\u005cmsneogothic-bold.ttf
p3617
sg20
g21
sbag1
(g8
g3
NtRp3618
(dp3619
g11
g12
sg13
VLiberation Serif
p3620
sg15
I700
sg16
g12
sg17
g12
sg18
Vc:\u005cwindows\u005cfonts\u005cliberationserif-bold.ttf
p3621
sg20
g21
sbag1
(g8
g3
NtRp3622
(dp3623
g11
g12
sg13
VAdobe Caslon Pro
p3624
sg15
I700
sg16
g12
sg17
g12
sg18
VC:\u005cWINDOWS\u005cFonts\u005cACaslonPro-Semibold.otf
p3625
sg20
g21
sbag1
(g8
g3
NtRp3626
(dp3627
g11
g12
sg13
VSegoe WP
p3628
sg15
I400
sg16
g12
sg17
g12
sg18
Vc:\u005cwindows\u005cfonts\u005csegoewp-black.ttf
p3629
sg20
g21
sbag1
(g8
g3
NtRp3630
(dp3631
g11
g12
sg13
VLiberation Serif
p3632
sg15
I700
sg16
g12
sg17
g12
sg18
VC:\u005cWINDOWS\u005cFonts\u005cLiberationSerif-Bold.ttf
p3633
sg20
g21
sbag1
(g8
g3
NtRp3634
(dp3635
g11
g12
sg13
VSketchFlow Print
p3636
sg15
I400
sg16
g12
sg17
g12
sg18
VC:\u005cWINDOWS\u005cFonts\u005cSketchFlow Print.ttf
p3637
sg20
g21
sbag1
(g8
g3
NtRp3638
(dp3639
g11
g12
sg13
VLeelawadee UI
p3640
sg15
I400
sg16
g12
sg17
g12
sg18
Vc:\u005cwindows\u005cfonts\u005cleeluisl.ttf
p3641
sg20
g21
sbag1
(g8
g3
NtRp3642
(dp3643
g11
g12
sg13
VGoudy Old Style
p3644
sg15
I400
sg16
g12
sg17
g12
sg18
VC:\u005cWINDOWS\u005cFonts\u005cGOUDOS.TTF
p3645
sg20
g21
sbag1
(g8
g3
NtRp3646
(dp3647
g11
g24
sg13
VMyriad Pro
p3648
sg15
I700
sg16
g179
sg17
g12
sg18
Vc:\u005cwindows\u005cfonts\u005cmyriadpro-boldcondit.otf
p3649
sg20
g21
sbag1
(g8
g3
NtRp3650
(dp3651
g11
g12
sg13
VKozuka Gothic Pro
p3652
sg15
I700
sg16
g12
sg17
g12
sg18
VC:\u005cWINDOWS\u005cFonts\u005cKozGoPro-Heavy.otf
p3653
sg20
g21
sbag1
(g8
g3
NtRp3654
(dp3655
g11
g24
sg13
VLucida Handwriting
p3656
sg15
I400
sg16
g12
sg17
g12
sg18
Vc:\u005cwindows\u005cfonts\u005clhandw.ttf
p3657
sg20
g21
sbag1
(g8
g3
NtRp3658
(dp3659
g11
g12
sg13
VACAT ALPHA
p3660
sg15
I400
sg16
g12
sg17
g12
sg18
Vc:\u005cintel\u005cacat\u005cassets\u005cfonts\u005cacat alpha.ttf
p3661
sg20
g21
sbag1
(g8
g3
NtRp3662
(dp3663
g11
g12
sg13
VLetter Gothic Std
p3664
sg15
I500
sg16
g12
sg17
g12
sg18
Vc:\u005cwindows\u005cfonts\u005clettergothicstd.otf
p3665
sg20
g21
sbag1
(g8
g3
NtRp3666
(dp3667
g11
g12
sg13
VDejaVu Sans
p3668
sg15
I400
sg16
g179
sg17
g12
sg18
Vc:\u005cwindows\u005cfonts\u005cdejavusanscondensed.ttf
p3669
sg20
g21
sbag1
(g8
g3
NtRp3670
(dp3671
g11
g24
sg13
VLinux Libertine G
p3672
sg15
I700
sg16
g12
sg17
g12
sg18
VC:\u005cWINDOWS\u005cFonts\u005cLinLibertine_RBI_G.ttf
p3673
sg20
g21
sbag1
(g8
g3
NtRp3674
(dp3675
g11
g12
sg13
VRockwell Extra Bold
p3676
sg15
I700
sg16
g12
sg17
g12
sg18
Vc:\u005cwindows\u005cfonts\u005crockeb.ttf
p3677
sg20
g21
sbag1
(g8
g3
NtRp3678
(dp3679
g11
g24
sg13
VBookman Old Style
p3680
sg15
I400
sg16
g12
sg17
g12
sg18
VC:\u005cWINDOWS\u005cFonts\u005cBOOKOSI.TTF
p3681
sg20
g21
sbag1
(g8
g3
NtRp3682
(dp3683
g11
g12
sg13
VRockwell
p3684
sg15
I700
sg16
g12
sg17
g12
sg18
Vc:\u005cwindows\u005cfonts\u005crockb.ttf
p3685
sg20
g21
sbag1
(g8
g3
NtRp3686
(dp3687
g11
g12
sg13
VDejaVu Sans Mono
p3688
sg15
I700
sg16
g12
sg17
g12
sg18
VC:\u005cWINDOWS\u005cFonts\u005cDejaVuSansMono-Bold.ttf
p3689
sg20
g21
sbag1
(g8
g3
NtRp3690
(dp3691
g11
g12
sg13
VPlaybill
p3692
sg15
I400
sg16
g12
sg17
g12
sg18
Vc:\u005cwindows\u005cfonts\u005cplaybill.ttf
p3693
sg20
g21
sbag1
(g8
g3
NtRp3694
(dp3695
g11
g12
sg13
VMicrosoft MHei
p3696
sg15
I700
sg16
g12
sg17
g12
sg18
Vc:\u005cwindows\u005cfonts\u005cmsmhei-bold.ttf
p3697
sg20
g21
sbag1
(g8
g3
NtRp3698
(dp3699
g11
g12
sg13
VGaramond
p3700
sg15
I400
sg16
g12
sg17
g12
sg18
VC:\u005cWINDOWS\u005cFonts\u005cGARA.TTF
p3701
sg20
g21
sbag1
(g8
g3
NtRp3702
(dp3703
g11
g12
sg13
VMyriad Arabic
p3704
sg15
I400
sg16
g12
sg17
g12
sg18
VC:\u005cWINDOWS\u005cFonts\u005cMyriadArabic-Regular.otf
p3705
sg20
g21
sbag1
(g8
g3
NtRp3706
(dp3707
g11
g24
sg13
VLiberation Mono
p3708
sg15
I700
sg16
g12
sg17
g12
sg18
Vc:\u005cwindows\u005cfonts\u005cliberationmono-bolditalic.ttf
p3709
sg20
g21
sbag1
(g8
g3
NtRp3710
(dp3711
g11
g24
sg13
VCalifornian FB
p3712
sg15
I400
sg16
g12
sg17
g12
sg18
VC:\u005cWINDOWS\u005cFonts\u005cCALIFI.TTF
p3713
sg20
g21
sbag1
(g8
g3
NtRp3714
(dp3715
g11
g12
sg13
VBodoni MT
p3716
sg15
I400
sg16
g12
sg17
g12
sg18
Vc:\u005cwindows\u005cfonts\u005cbod_r.ttf
p3717
sg20
g21
sbag1
(g8
g3
NtRp3718
(dp3719
g11
g24
sg13
VAdobe Caslon Pro
p3720
sg15
I400
sg16
g12
sg17
g12
sg18
VC:\u005cWINDOWS\u005cFonts\u005cACaslonPro-Italic.otf
p3721
sg20
g21
sbag1
(g8
g3
NtRp3722
(dp3723
g11
g37
sg13
VDejaVu Sans
p3724
sg15
I700
sg16
g12
sg17
g12
sg18
VC:\u005cWINDOWS\u005cFonts\u005cDejaVuSans-BoldOblique.ttf
p3725
sg20
g21
sbag1
(g8
g3
NtRp3726
(dp3727
g11
g12
sg13
VKozuka Mincho Pro
p3728
sg15
I700
sg16
g12
sg17
g12
sg18
VC:\u005cWINDOWS\u005cFonts\u005cKozMinPro-Heavy.otf
p3729
sg20
g21
sbag1
(g8
g3
NtRp3730
(dp3731
g11
g12
sg13
VBodoni MT
p3732
sg15
I400
sg16
g12
sg17
g12
sg18
Vc:\u005cwindows\u005cfonts\u005cbod_pstc.ttf
p3733
sg20
g21
sbag1
(g8
g3
NtRp3734
(dp3735
g11
g24
sg13
VNueva Std
p3736
sg15
I400
sg16
g12
sg17
g12
sg18
VC:\u005cWINDOWS\u005cFonts\u005cNuevaStd-Italic.otf
p3737
sg20
g21
sbag1
(g8
g3
NtRp3738
(dp3739
g11
g12
sg13
VSegoe WP
p3740
sg15
I400
sg16
g12
sg17
g12
sg18
VC:\u005cWINDOWS\u005cFonts\u005cSegoeWP-Semilight.ttf
p3741
sg20
g21
sbag1
(g8
g3
NtRp3742
(dp3743
g11
g12
sg13
VAgency FB
p3744
sg15
I700
sg16
g12
sg17
g12
sg18
VC:\u005cWINDOWS\u005cFonts\u005cAGENCYB.TTF
p3745
sg20
g21
sbag1
(g8
g3
NtRp3746
(dp3747
g11
g12
sg13
VPoor Richard
p3748
sg15
I400
sg16
g12
sg17
g12
sg18
Vc:\u005cwindows\u005cfonts\u005cpoorich.ttf
p3749
sg20
g21
sbag1
(g8
g3
NtRp3750
(dp3751
g11
g12
sg13
VHobo Std
p3752
sg15
I500
sg16
g12
sg17
g12
sg18
VC:\u005cWINDOWS\u005cFonts\u005cHoboStd.otf
p3753
sg20
g21
sbag1
(g8
g3
NtRp3754
(dp3755
g11
g12
sg13
VWide Latin
p3756
sg15
I400
sg16
g2504
sg17
g12
sg18
VC:\u005cWINDOWS\u005cFonts\u005cLATINWD.TTF
p3757
sg20
g21
sbag1
(g8
g3
NtRp3758
(dp3759
g11
g24
sg13
VOpen Sans
p3760
sg15
I400
sg16
g12
sg17
g12
sg18
VC:\u005cWINDOWS\u005cFonts\u005cOpenSans-Italic.ttf
p3761
sg20
g21
sbag1
(g8
g3
NtRp3762
(dp3763
g11
g12
sg13
VAdobe Fan Heiti Std
p3764
sg15
I700
sg16
g12
sg17
g12
sg18
Vc:\u005cwindows\u005cfonts\u005cadobefanheitistd-bold.otf
p3765
sg20
g21
sbag1
(g8
g3
NtRp3766
(dp3767
g11
g12
sg13
VMarlett
p3768
sg15
I400
sg16
g12
sg17
g12
sg18
VC:\u005cWINDOWS\u005cFonts\u005cmarlett.ttf
p3769
sg20
g21
sbag1
(g8
g3
NtRp3770
(dp3771
g11
g24
sg13
VLinux Biolinum G
p3772
sg15
I400
sg16
g12
sg17
g12
sg18
Vc:\u005cwindows\u005cfonts\u005clinbiolinum_ri_g.ttf
p3773
sg20
g21
sbag1
(g8
g3
NtRp3774
(dp3775
g11
g12
sg13
VGabriola
p3776
sg15
I400
sg16
g12
sg17
g12
sg18
Vc:\u005cwindows\u005cfonts\u005cgabriola.ttf
p3777
sg20
g21
sbag1
(g8
g3
NtRp3778
(dp3779
g11
g12
sg13
VImprint MT Shadow
p3780
sg15
I400
sg16
g12
sg17
g12
sg18
VC:\u005cWINDOWS\u005cFonts\u005cIMPRISHA.TTF
p3781
sg20
g21
sbag1
(g8
g3
NtRp3782
(dp3783
g11
g24
sg13
VLetter Gothic Std
p3784
sg15
I700
sg16
g12
sg17
g12
sg18
Vc:\u005cwindows\u005cfonts\u005clettergothicstd-boldslanted.otf
p3785
sg20
g21
sbag1
(g8
g3
NtRp3786
(dp3787
g11
g24
sg13
VPerpetua
p3788
sg15
I700
sg16
g12
sg17
g12
sg18
Vc:\u005cwindows\u005cfonts\u005cperbi___.ttf
p3789
sg20
g21
sbag1
(g8
g3
NtRp3790
(dp3791
g11
g12
sg13
VNueva Std
p3792
sg15
I700
sg16
g179
sg17
g12
sg18
VC:\u005cWINDOWS\u005cFonts\u005cNuevaStd-BoldCond.otf
p3793
sg20
g21
sbag1
(g8
g3
NtRp3794
(dp3795
g11
g12
sg13
VTw Cen MT
p3796
sg15
I400
sg16
g12
sg17
g12
sg18
Vc:\u005cwindows\u005cfonts\u005ctcm_____.ttf
p3797
sg20
g21
sbag1
(g8
g3
NtRp3798
(dp3799
g11
g24
sg13
VCaladea
p3800
sg15
I400
sg16
g12
sg17
g12
sg18
Vc:\u005cwindows\u005cfonts\u005ccaladea-italic.ttf
p3801
sg20
g21
sbag1
(g8
g3
NtRp3802
(dp3803
g11
g12
sg13
VRavie
p3804
sg15
I400
sg16
g12
sg17
g12
sg18
Vc:\u005cwindows\u005cfonts\u005cravie.ttf
p3805
sg20
g21
sbag1
(g8
g3
NtRp3806
(dp3807
g11
g24
sg13
VLiberation Sans Narrow
p3808
sg15
I400
sg16
g179
sg17
g12
sg18
Vc:\u005cwindows\u005cfonts\u005cliberationsansnarrow-italic.ttf
p3809
sg20
g21
sbag1
(g8
g3
NtRp3810
(dp3811
g11
g12
sg13
VAdobe Kaiti Std
p3812
sg15
I400
sg16
g12
sg17
g12
sg18
VC:\u005cWINDOWS\u005cFonts\u005cAdobeKaitiStd-Regular.otf
p3813
sg20
g21
sbag1
(g8
g3
NtRp3814
(dp3815
g11
g12
sg13
VLeelawadee UI
p3816
sg15
I400
sg16
g12
sg17
g12
sg18
Vc:\u005cwindows\u005cfonts\u005cleelawui.ttf
p3817
sg20
g21
sbag1
(g8
g3
NtRp3818
(dp3819
g11
g24
sg13
VGentium Basic
p3820
sg15
I700
sg16
g12
sg17
g12
sg18
VC:\u005cWINDOWS\u005cFonts\u005cGenBasBI.ttf
p3821
sg20
g21
sbag1
(g8
g3
NtRp3822
(dp3823
g11
g24
sg13
VSource Sans Pro
p3824
sg15
I700
sg16
g12
sg17
g12
sg18
Vc:\u005cwindows\u005cfonts\u005csourcesanspro-boldit.ttf
p3825
sg20
g21
sbag1
(g8
g3
NtRp3826
(dp3827
g11
g12
sg13
VGentium Book Basic
p3828
sg15
I700
sg16
g12
sg17
g12
sg18
Vc:\u005cwindows\u005cfonts\u005cgenbkbasb.ttf
p3829
sg20
g21
sbag1
(g8
g3
NtRp3830
(dp3831
g11
g12
sg13
VBook Antiqua
p3832
sg15
I400
sg16
g12
sg17
g12
sg18
VC:\u005cWINDOWS\u005cFonts\u005cBKANT.TTF
p3833
sg20
g21
sbag1
(g8
g3
NtRp3834
(dp3835
g11
g12
sg13
VMistral
p3836
sg15
I400
sg16
g12
sg17
g12
sg18
VC:\u005cWINDOWS\u005cFonts\u005cMISTRAL.TTF
p3837
sg20
g21
sbag1
(g8
g3
NtRp3838
(dp3839
g11
g12
sg13
VAdobe Heiti Std
p3840
sg15
I400
sg16
g12
sg17
g12
sg18
VC:\u005cWINDOWS\u005cFonts\u005cAdobeHeitiStd-Regular.otf
p3841
sg20
g21
sbag1
(g8
g3
NtRp3842
(dp3843
g11
g12
sg13
VScript MT Bold
p3844
sg15
I700
sg16
g12
sg17
g12
sg18
Vc:\u005cwindows\u005cfonts\u005cscriptbl.ttf
p3845
sg20
g21
sbag1
(g8
g3
NtRp3846
(dp3847
g11
g12
sg13
VMatura MT Script Capitals
p3848
sg15
I400
sg16
g12
sg17
g12
sg18
VC:\u005cWINDOWS\u005cFonts\u005cMATURASC.TTF
p3849
sg20
g21
sbag1
(g8
g3
NtRp3850
(dp3851
g11
g24
sg13
VCalisto MT
p3852
sg15
I700
sg16
g12
sg17
g12
sg18
Vc:\u005cwindows\u005cfonts\u005ccalistbi.ttf
p3853
sg20
g21
sbag1
(g8
g3
NtRp3854
(dp3855
g11
g12
sg13
VOld English Text MT
p3856
sg15
I400
sg16
g12
sg17
g12
sg18
Vc:\u005cwindows\u005cfonts\u005coldengl.ttf
p3857
sg20
g21
sbag1
(g8
g3
NtRp3858
(dp3859
g11
g24
sg13
VCaladea
p3860
sg15
I700
sg16
g12
sg17
g12
sg18
VC:\u005cWINDOWS\u005cFonts\u005cCaladea-BoldItalic.ttf
p3861
sg20
g21
sbag1
(g8
g3
NtRp3862
(dp3863
g11
g12
sg13
VMicrosoft PhagsPa
p3864
sg15
I700
sg16
g12
sg17
g12
sg18
VC:\u005cWINDOWS\u005cFonts\u005cphagspab.ttf
p3865
sg20
g21
sbag1
(g8
g3
NtRp3866
(dp3867
g11
g12
sg13
VDejaVu Sans
p3868
sg15
I400
sg16
g12
sg17
g12
sg18
VC:\u005cWINDOWS\u005cFonts\u005cDejaVuSans.ttf
p3869
sg20
g21
sbag1
(g8
g3
NtRp3870
(dp3871
g11
g12
sg13
VPoplar Std
p3872
sg15
I900
sg16
g12
sg17
g12
sg18
VC:\u005cWINDOWS\u005cFonts\u005cPoplarStd.otf
p3873
sg20
g21
sbag1
(g8
g3
NtRp3874
(dp3875
g11
g12
sg13
VAdobe Naskh
p3876
sg15
I500
sg16
g12
sg17
g12
sg18
Vc:\u005cwindows\u005cfonts\u005cadobenaskh-medium.otf
p3877
sg20
g21
sbag1
(g8
g3
NtRp3878
(dp3879
g11
g12
sg13
VAdobe Devanagari
p3880
sg15
I400
sg16
g12
sg17
g12
sg18
Vc:\u005cwindows\u005cfonts\u005cadobedevanagari-regular.otf
p3881
sg20
g21
sbag1
(g8
g3
NtRp3882
(dp3883
g11
g37
sg13
VDejaVu Sans Mono
p3884
sg15
I400
sg16
g12
sg17
g12
sg18
Vc:\u005cwindows\u005cfonts\u005cdejavusansmono-oblique.ttf
p3885
sg20
g21
sbag1
(g8
g3
NtRp3886
(dp3887
g11
g12
sg13
VBell MT
p3888
sg15
I400
sg16
g12
sg17
g12
sg18
VC:\u005cWINDOWS\u005cFonts\u005cBELL.TTF
p3889
sg20
g21
sbag1
(g8
g3
NtRp3890
(dp3891
g11
g12
sg13
VArial Unicode MS
p3892
sg15
I400
sg16
g12
sg17
g12
sg18
VC:\u005cWINDOWS\u005cFonts\u005cARIALUNI.TTF
p3893
sg20
g21
sbag1
(g8
g3
NtRp3894
(dp3895
g11
g12
sg13
VMyriad Hebrew
p3896
sg15
I700
sg16
g12
sg17
g12
sg18
Vc:\u005cwindows\u005cfonts\u005cmyriadhebrew-bold.otf
p3897
sg20
g21
sbag1
(g8
g3
NtRp3898
(dp3899
g11
g12
sg13
VNirmala UI
p3900
sg15
I700
sg16
g12
sg17
g12
sg18
Vc:\u005cwindows\u005cfonts\u005cnirmalab.ttf
p3901
sg20
g21
sbag1
(g8
g3
NtRp3902
(dp3903
g11
g12
sg13
VMesquite Std
p3904
sg15
I500
sg16
g12
sg17
g12
sg18
VC:\u005cWINDOWS\u005cFonts\u005cMesquiteStd.otf
p3905
sg20
g21
sbag1
(g8
g3
NtRp3906
(dp3907
g11
g24
sg13
VMyriad Hebrew
p3908
sg15
I700
sg16
g12
sg17
g12
sg18
VC:\u005cWINDOWS\u005cFonts\u005cMyriadHebrew-BoldIt.otf
p3909
sg20
g21
sbag1
(g8
g3
NtRp3910
(dp3911
g11
g24
sg13
VBodoni MT
p3912
sg15
I700
sg16
g179
sg17
g12
sg18
Vc:\u005cwindows\u005cfonts\u005cbod_cbi.ttf
p3913
sg20
g21
sbag1
(g8
g3
NtRp3914
(dp3915
g11
g12
sg13
VLetter Gothic Std
p3916
sg15
I700
sg16
g12
sg17
g12
sg18
Vc:\u005cwindows\u005cfonts\u005clettergothicstd-bold.otf
p3917
sg20
g21
sbag1
(g8
g3
NtRp3918
(dp3919
g11
g12
sg13
VKozuka Mincho Pro
p3920
sg15
I700
sg16
g12
sg17
g12
sg18
Vc:\u005cwindows\u005cfonts\u005ckozminpro-bold.otf
p3921
sg20
g21
sbag1
(g8
g3
NtRp3922
(dp3923
g11
g12
sg13
VBroadway
p3924
sg15
I400
sg16
g12
sg17
g12
sg18
Vc:\u005cwindows\u005cfonts\u005cbroadw.ttf
p3925
sg20
g21
sbag1
(g8
g3
NtRp3926
(dp3927
g11
g12
sg13
VModern No. 20
p3928
sg15
I400
sg16
g12
sg17
g12
sg18
VC:\u005cWINDOWS\u005cFonts\u005cMOD20.TTF
p3929
sg20
g21
sbasS'defaultFamily'
p3930
(dp3931
Vafm
p3932
VHelvetica
p3933
sVttf
p3934
VBitstream Vera Sans
p3935
ssS'ttffiles'
p3936
(lp3937
g19
ag26
ag30
ag34
ag39
ag43
ag47
ag51
ag55
ag59
ag63
ag67
ag71
ag75
ag79
ag83
ag87
ag91
ag95
ag99
ag103
ag107
ag111
ag115
ag119
ag123
ag127
ag131
ag135
ag139
ag143
ag147
ag151
ag155
ag159
ag163
ag167
ag171
ag175
ag180
ag184
ag188
ag192
ag196
ag200
ag204
ag208
ag212
ag216
ag220
ag224
ag228
ag232
ag236
ag240
ag244
ag248
ag252
ag256
aVc:\u005cwindows\u005cfonts\u005ctrebucbi.ttf
p3938
ag260
ag264
ag268
ag272
ag276
ag280
ag284
ag288
ag292
ag296
ag300
ag304
ag308
ag312
ag316
ag320
ag324
ag328
ag332
ag336
ag340
ag344
ag348
ag352
ag356
ag360
ag364
ag368
ag372
ag376
ag380
ag384
ag388
ag392
ag396
ag400
ag404
ag408
ag412
ag416
ag420
ag424
ag428
ag432
ag436
ag440
ag444
ag448
ag452
ag456
ag460
ag464
ag468
ag472
ag476
ag480
ag484
ag488
ag492
ag496
ag500
ag504
ag508
ag512
ag516
ag520
ag524
ag528
ag532
ag536
ag540
ag544
ag548
ag552
ag556
ag560
ag564
ag568
ag572
ag576
ag580
ag584
ag588
ag592
ag596
ag600
ag604
ag608
ag612
ag616
ag620
ag624
aVc:\u005cwindows\u005cfonts\u005cseguiemj.ttf
p3939
ag628
ag632
ag636
ag640
ag644
ag648
ag652
ag656
ag660
ag664
ag668
ag672
ag676
ag680
ag684
ag688
ag692
ag696
ag700
ag704
ag708
ag712
ag716
ag720
ag724
ag728
ag732
ag736
ag740
ag744
ag748
ag752
ag756
ag760
ag764
ag768
ag772
ag776
ag780
ag784
ag788
ag792
ag796
ag800
ag804
ag808
ag812
ag816
ag820
ag824
ag828
ag832
ag836
ag840
ag844
ag848
ag852
ag856
ag860
ag864
ag868
ag872
ag876
ag880
ag884
ag888
ag892
ag896
ag900
ag904
ag908
ag912
ag916
ag920
ag924
ag928
ag932
ag936
ag940
ag944
ag948
ag952
ag956
ag960
ag964
aVC:\u005cWINDOWS\u005cFonts\u005ctahomabd.ttf
p3940
ag968
ag972
ag976
aVc:\u005cwindows\u005cfonts\u005ctaile.ttf
p3941
ag980
ag984
ag988
ag992
ag996
ag1000
ag1004
ag1008
ag1012
ag1016
ag1020
ag1024
ag1028
ag1032
ag1036
ag1040
ag1044
ag1048
ag1052
ag1056
ag1060
ag1064
ag1068
ag1072
ag1076
ag1080
ag1084
ag1088
ag1092
ag1096
ag1100
ag1104
ag1108
ag1112
ag1116
ag1120
ag1124
ag1128
ag1132
ag1136
ag1140
ag1144
ag1148
ag1152
ag1156
ag1160
ag1164
ag1168
ag1172
ag1176
ag1180
ag1184
ag1188
ag1192
aVc:\u005cwindows\u005cfonts\u005cmicross.ttf
p3942
ag1196
ag1200
ag1204
ag1208
ag1212
ag1216
ag1220
ag1224
ag1228
ag1232
ag1236
ag1240
aVc:\u005cwindows\u005cfonts\u005carial.ttf
p3943
ag1244
ag1248
ag1252
ag1256
ag1260
ag1264
ag1268
ag1272
ag1276
ag1280
ag1284
ag1288
ag1292
ag1296
ag1300
ag1304
ag1308
ag1312
ag1316
ag1320
ag1324
ag1328
ag1332
ag1336
ag1340
ag1344
ag1348
aVc:\u005cwindows\u005cfonts\u005ccalibrib.ttf
p3944
ag1352
ag1356
ag1360
ag1364
ag1368
ag1372
ag1376
ag1380
ag1384
ag1388
ag1392
ag1396
ag1400
ag1404
ag1408
ag1412
ag1416
ag1420
ag1424
ag1428
ag1432
ag1436
ag1440
ag1444
ag1448
aVC:\u005cWINDOWS\u005cFonts\u005cl_10646.ttf
p3945
aVc:\u005cwindows\u005cfonts\u005ccambriai.ttf
p3946
ag1452
ag1456
ag1460
ag1464
ag1468
aVc:\u005cwindows\u005cfonts\u005ccour.ttf
p3947
ag1472
ag1476
ag1480
ag1484
ag1488
ag1492
ag1496
ag1500
ag1504
ag1508
ag1512
ag1516
ag1520
ag1524
aVC:\u005cWINDOWS\u005cFonts\u005cpalai.ttf
p3948
ag1528
ag1532
ag1536
ag1540
ag1544
ag1548
ag1552
ag1556
ag1560
ag1564
ag1568
ag1572
ag1576
ag1580
ag1584
ag1588
ag1592
ag1596
ag1600
ag1604
ag1608
ag1612
ag1616
ag1620
ag1624
ag1628
ag1632
ag1636
ag1640
ag1644
ag1648
aVC:\u005cWINDOWS\u005cFonts\u005cntailu.ttf
p3949
aVC:\u005cWINDOWS\u005cFonts\u005cphagspa.ttf
p3950
ag1652
ag1656
ag1660
aVC:\u005cWINDOWS\u005cFonts\u005cseguisbi.ttf
p3951
aVc:\u005cwindows\u005cfonts\u005cmalgunsl.ttf
p3952
ag1664
ag1668
ag1672
ag1676
ag1680
ag1684
ag1688
ag1692
ag1696
ag1700
ag1704
ag1708
ag1712
ag1716
ag1720
ag1724
ag1728
ag1732
ag1736
ag1740
ag1744
ag1748
aVC:\u005cWINDOWS\u005cFonts\u005cconstan.ttf
p3953
ag1752
ag1756
ag1760
aVC:\u005cWINDOWS\u005cFonts\u005ccalibri.ttf
p3954
ag1764
ag1768
aVC:\u005cWINDOWS\u005cFonts\u005csegoepr.ttf
p3955
ag1772
aVC:\u005cWINDOWS\u005cFonts\u005cseguibl.ttf
p3956
ag1776
ag1780
ag1784
ag1788
ag1792
ag1796
ag1800
aVc:\u005cwindows\u005cfonts\u005csimsunb.ttf
p3957
ag1804
aVc:\u005cwindows\u005cfonts\u005copens___.ttf
p3958
ag1808
ag1812
aVC:\u005cWINDOWS\u005cFonts\u005cverdanai.ttf
p3959
ag1816
ag1820
ag1824
ag1828
ag1832
ag1836
ag1840
ag1844
ag1848
ag1852
ag1856
ag1860
ag1864
ag1868
ag1872
ag1876
ag1880
ag1884
ag1888
ag1892
aVc:\u005cwindows\u005cfonts\u005ctimesbi.ttf
p3960
ag1896
ag1900
ag1904
ag1908
ag1912
ag1916
ag1920
ag1924
ag1928
ag1932
ag1936
ag1940
ag1944
ag1948
aVC:\u005cWINDOWS\u005cFonts\u005ccomicbd.ttf
p3961
ag1952
ag1956
ag1960
ag1964
aVc:\u005cwindows\u005cfonts\u005ccalibrili.ttf
p3962
aVc:\u005cwindows\u005cfonts\u005cpalab.ttf
p3963
aVC:\u005cWINDOWS\u005cFonts\u005ccalibril.ttf
p3964
ag1968
ag1972
ag1976
ag1980
ag1984
ag1988
ag1992
ag1996
ag2000
ag2004
ag2008
ag2012
ag2016
ag2020
ag2024
ag2028
ag2032
ag2036
ag2040
ag2044
ag2048
ag2052
aVc:\u005cwindows\u005cfonts\u005cconstanb.ttf
p3965
ag2056
ag2060
ag2064
ag2068
ag2072
ag2076
ag2080
ag2084
ag2088
ag2092
ag2096
ag2100
ag2104
ag2108
ag2112
ag2116
ag2120
aVc:\u005cwindows\u005cfonts\u005ccomici.ttf
p3966
ag2124
ag2128
ag2132
ag2136
ag2140
ag2144
ag2148
ag2152
ag2156
ag2160
ag2164
ag2168
ag2172
ag2176
ag2180
ag2184
ag2188
ag2192
ag2196
aVc:\u005cwindows\u005cfonts\u005cconstanz.ttf
p3967
ag2200
ag2204
ag2208
ag2212
ag2216
ag2220
ag2224
ag2228
ag2232
ag2236
ag2240
ag2244
ag2248
ag2252
ag2256
ag2260
ag2264
ag2268
ag2272
ag2276
ag2280
ag2284
ag2288
ag2292
ag2296
ag2300
ag2304
ag2308
ag2312
ag2316
ag2320
ag2324
aVC:\u005cWINDOWS\u005cFonts\u005csylfaen.ttf
p3968
ag2328
ag2332
ag2336
ag2340
ag2344
ag2348
ag2352
ag2356
ag2360
ag2364
ag2368
ag2372
ag2376
ag2380
ag2384
ag2388
ag2392
ag2396
aVC:\u005cWINDOWS\u005cFonts\u005cjavatext.ttf
p3969
ag2400
ag2404
ag2408
ag2412
ag2416
ag2420
aVC:\u005cWINDOWS\u005cFonts\u005ccourbi.ttf
p3970
ag2424
ag2428
ag2432
ag2436
ag2440
ag2444
ag2448
ag2452
ag2456
ag2460
ag2464
ag2468
ag2472
ag2476
ag2480
ag2484
ag2488
ag2492
ag2496
ag2500
ag2505
ag2509
ag2513
ag2517
ag2521
ag2525
ag2529
ag2533
ag2537
ag2541
ag2545
ag2549
ag2553
ag2557
ag2561
ag2565
ag2569
ag2573
ag2577
aVc:\u005cwindows\u005cfonts\u005cconsolaz.ttf
p3971
ag2581
ag2585
ag2589
aVC:\u005cWINDOWS\u005cFonts\u005cseguisb.ttf
p3972
ag2593
ag2597
ag2601
ag2605
ag2609
ag2613
ag2617
ag2621
ag2625
aVC:\u005cWINDOWS\u005cFonts\u005cconsola.ttf
p3973
ag2629
ag2633
ag2637
ag2641
ag2645
ag2649
ag2653
ag2657
ag2661
ag2665
ag2669
ag2673
ag2677
ag2681
ag2685
ag2689
ag2693
ag2697
aVc:\u005cwindows\u005cfonts\u005ccalibrii.ttf
p3974
ag2701
ag2705
aVc:\u005cwindows\u005cfonts\u005ccorbeli.ttf
p3975
ag2709
ag2713
ag2717
ag2721
ag2725
ag2729
ag2733
ag2737
aVC:\u005cWINDOWS\u005cFonts\u005ccouri.ttf
p3976
ag2741
ag2745
aVC:\u005cWINDOWS\u005cFonts\u005ctrebucbd.ttf
p3977
ag2749
ag2753
ag2757
ag2761
ag2765
ag2769
ag2773
ag2777
ag2781
ag2785
ag2789
aVC:\u005cWINDOWS\u005cFonts\u005ccourbd.ttf
p3978
ag2793
ag2797
ag2801
ag2805
ag2809
ag2813
aVc:\u005cwindows\u005cfonts\u005cseguili.ttf
p3979
aVC:\u005cWINDOWS\u005cFonts\u005cseguibli.ttf
p3980
ag2817
ag2821
ag2825
aVC:\u005cWINDOWS\u005cFonts\u005cverdanab.ttf
p3981
aVC:\u005cWINDOWS\u005cFonts\u005cframdit.ttf
p3982
ag2829
aVC:\u005cWINDOWS\u005cFonts\u005ccorbelb.ttf
p3983
ag2833
ag2837
ag2841
ag2845
ag2849
ag2853
ag2857
ag2861
ag2865
ag2869
aVc:\u005cwindows\u005cfonts\u005cgeorgiaz.ttf
p3984
ag2873
aVC:\u005cWINDOWS\u005cFonts\u005cverdanaz.ttf
p3985
aVc:\u005cwindows\u005cfonts\u005cwebdings.ttf
p3986
ag2877
ag2881
ag2885
aVC:\u005cWINDOWS\u005cFonts\u005cgadugi.ttf
p3987
aVC:\u005cWINDOWS\u005cFonts\u005cariblk.ttf
p3988
ag2889
ag2893
ag2897
ag2901
ag2905
ag2909
ag2913
ag2917
aVC:\u005cWINDOWS\u005cFonts\u005cconsolai.ttf
p3989
aVC:\u005cWINDOWS\u005cFonts\u005ccambriab.ttf
p3990
ag2921
ag2925
ag2929
ag2933
ag2937
ag2941
aVc:\u005cwindows\u005cfonts\u005cgeorgia.ttf
p3991
ag2945
ag2949
ag2953
ag2957
ag2961
ag2965
aVc:\u005cwindows\u005cfonts\u005cmonbaiti.ttf
p3992
ag2969
ag2973
ag2977
ag2981
aVc:\u005cwindows\u005cfonts\u005cseguihis.ttf
p3993
ag2985
ag2989
aVc:\u005cwindows\u005cfonts\u005ccorbel.ttf
p3994
ag2993
ag2997
ag3001
ag3005
ag3009
ag3013
ag3017
ag3021
ag3025
aVC:\u005cWINDOWS\u005cFonts\u005ccomicz.ttf
p3995
ag3029
ag3033
ag3037
ag3041
aVc:\u005cwindows\u005cfonts\u005cmmrtext.ttf
p3996
ag3045
aVC:\u005cWINDOWS\u005cFonts\u005ctaileb.ttf
p3997
aVc:\u005cwindows\u005cfonts\u005csegoesc.ttf
p3998
aVc:\u005cwindows\u005cfonts\u005csegoeuisl.ttf
p3999
ag3049
ag3053
ag3057
aVc:\u005cwindows\u005cfonts\u005cseguisli.ttf
p4000
aVc:\u005cwindows\u005cfonts\u005ccorbelz.ttf
p4001
ag3061
ag3065
ag3069
ag3073
aVC:\u005cWINDOWS\u005cFonts\u005csegoeui.ttf
p4002
ag3077
ag3081
ag3085
aVc:\u005cwindows\u005cfonts\u005csegoeprb.ttf
p4003
ag3089
ag3093
aVc:\u005cwindows\u005cfonts\u005cmmrtextb.ttf
p4004
ag3097
ag3101
ag3105
ag3109
aVc:\u005cwindows\u005cfonts\u005ctahoma.ttf
p4005
ag3113
ag3117
ag3121
ag3125
aVC:\u005cWINDOWS\u005cFonts\u005cebrimabd.ttf
p4006
ag3129
ag3133
ag3137
ag3141
ag3145
ag3149
aVc:\u005cwindows\u005cfonts\u005cframd.ttf
p4007
aVC:\u005cWINDOWS\u005cFonts\u005carialbd.ttf
p4008
ag3153
ag3157
ag3161
ag3165
ag3169
ag3173
ag3177
ag3181
ag3185
ag3189
aVC:\u005cWINDOWS\u005cFonts\u005csegoeuii.ttf
p4009
aVC:\u005cWINDOWS\u005cFonts\u005ctrebucit.ttf
p4010
ag3193
ag3197
ag3201
ag3205
ag3209
aVc:\u005cwindows\u005cfonts\u005cimpact.ttf
p4011
aVc:\u005cwindows\u005cfonts\u005cmalgun.ttf
p4012
ag3213
ag3217
ag3221
ag3225
ag3229
ag3233
ag3237
ag3241
ag3245
ag3249
ag3253
ag3257
ag3261
ag3265
ag3269
ag3273
aVC:\u005cWINDOWS\u005cFonts\u005cmsyi.ttf
p4013
ag3277
ag3281
aVc:\u005cwindows\u005cfonts\u005cgeorgiai.ttf
p4014
ag3285
ag3289
aVc:\u005cwindows\u005cfonts\u005chimalaya.ttf
p4015
ag3293
ag3297
ag3301
aVc:\u005cwindows\u005cfonts\u005cpala.ttf
p4016
ag3305
ag3309
aVC:\u005cWINDOWS\u005cFonts\u005csegoescb.ttf
p4017
ag3313
ag3317
ag3321
ag3325
ag3329
ag3333
ag3337
ag3341
aVc:\u005cwindows\u005cfonts\u005cseguisym.ttf
p4018
ag3345
ag3349
ag3353
ag3357
ag3361
ag3365
ag3369
ag3373
ag3377
ag3381
ag3385
aVc:\u005cwindows\u005cfonts\u005ccambriaz.ttf
p4019
ag3389
ag3393
aVC:\u005cWINDOWS\u005cFonts\u005csegoeuiz.ttf
p4020
aVC:\u005cWINDOWS\u005cFonts\u005carialbi.ttf
p4021
ag3397
ag3401
ag3405
ag3409
ag3413
aVc:\u005cwindows\u005cfonts\u005cgeorgiab.ttf
p4022
ag3417
ag3421
ag3425
ag3429
ag3433
ag3437
ag3441
ag3445
ag3449
ag3453
ag3457
ag3461
ag3465
ag3469
ag3473
aVc:\u005cwindows\u005cfonts\u005csegoeuib.ttf
p4023
aVc:\u005cwindows\u005cfonts\u005cgadugib.ttf
p4024
ag3477
ag3481
ag3485
ag3489
aVc:\u005cwindows\u005cfonts\u005csegoeuil.ttf
p4025
ag3493
ag3497
ag3501
ag3505
ag3509
ag3513
ag3517
ag3521
ag3525
ag3529
aVC:\u005cWINDOWS\u005cFonts\u005ctimes.ttf
p4026
ag3533
ag3537
ag3541
aVc:\u005cwindows\u005cfonts\u005cebrima.ttf
p4027
aVC:\u005cWINDOWS\u005cFonts\u005cmalgunbd.ttf
p4028
ag3545
ag3549
ag3553
ag3557
aVC:\u005cWINDOWS\u005cFonts\u005ctrebuc.ttf
p4029
aVC:\u005cWINDOWS\u005cFonts\u005ctimesi.ttf
p4030
ag3561
aVC:\u005cWINDOWS\u005cFonts\u005csymbol.ttf
p4031
ag3565
ag3569
ag3573
ag3577
aVC:\u005cWINDOWS\u005cFonts\u005cconsolab.ttf
p4032
ag3581
ag3585
ag3589
ag3593
ag3597
ag3601
ag3605
ag3609
ag3613
ag3617
ag3621
ag3625
ag3629
ag3633
ag3637
ag3641
ag3645
aVc:\u005cwindows\u005cfonts\u005cverdana.ttf
p4033
ag3649
ag3653
ag3657
ag3661
ag3665
ag3669
ag3673
ag3677
ag3681
aVc:\u005cwindows\u005cfonts\u005ctimesbd.ttf
p4034
ag3685
ag3689
ag3693
ag3697
ag3701
ag3705
ag3709
ag3713
ag3717
ag3721
aVC:\u005cWINDOWS\u005cFonts\u005cariali.ttf
p4035
ag3725
aVC:\u005cWINDOWS\u005cFonts\u005ccalibriz.ttf
p4036
ag3729
ag3733
ag3737
aVc:\u005cwindows\u005cfonts\u005cconstani.ttf
p4037
ag3741
ag3745
ag3749
ag3753
ag3757
aVc:\u005cwindows\u005cfonts\u005cntailub.ttf
p4038
ag3761
ag3765
ag3769
ag3773
ag3777
ag3781
ag3785
ag3789
ag3793
aVc:\u005cwindows\u005cfonts\u005cpalabi.ttf
p4039
ag3797
aVc:\u005cwindows\u005cfonts\u005clucon.ttf
p4040
ag3801
ag3805
ag3809
aVC:\u005cWINDOWS\u005cFonts\u005ccomic.ttf
p4041
ag3813
ag3817
ag3821
ag3825
ag3829
ag3833
ag3837
ag3841
ag3845
ag3849
ag3853
ag3857
aVc:\u005cwindows\u005cfonts\u005cmvboli.ttf
p4042
ag3861
ag3865
ag3869
ag3873
ag3877
ag3881
ag3885
ag3889
ag3893
aVc:\u005cwindows\u005cfonts\u005cphagspab.ttf
p4043
aVc:\u005cwindows\u005cfonts\u005csegmdl2.ttf
p4044
ag3897
ag3901
ag3905
ag3909
ag3913
ag3917
ag3921
ag3925
ag3929
aVC:\u005cWINDOWS\u005cFonts\u005cwingding.ttf
p4045
asS'_FontManager__default_weight'
p4046
Vnormal
p4047
sS'_version'
p4048
I101
sS'default_size'
p4049
NsS'defaultFont'
p4050
(dp4051
g3932
VC:\u005cUsers\u005cAnirudh\u005cAnaconda2\u005clib\u005csite-packages\u005cmatplotlib\u005cmpl-data\u005cfonts\u005cafm\u005cphvr8an.afm
p4052
sg3934
g127
ssS'afmfiles'
p4053
(lp4054
g4052
aVC:\u005cUsers\u005cAnirudh\u005cAnaconda2\u005clib\u005csite-packages\u005cmatplotlib\u005cmpl-data\u005cfonts\u005cafm\u005cphvb8a.afm
p4055
aVC:\u005cUsers\u005cAnirudh\u005cAnaconda2\u005clib\u005csite-packages\u005cmatplotlib\u005cmpl-data\u005cfonts\u005cafm\u005cpcrr8a.afm
p4056
aVC:\u005cUsers\u005cAnirudh\u005cAnaconda2\u005clib\u005csite-packages\u005cmatplotlib\u005cmpl-data\u005cfonts\u005cafm\u005cpagd8a.afm
p4057
aVC:\u005cUsers\u005cAnirudh\u005cAnaconda2\u005clib\u005csite-packages\u005cmatplotlib\u005cmpl-data\u005cfonts\u005cpdfcorefonts\u005cTimes-BoldItalic.afm
p4058
aVC:\u005cUsers\u005cAnirudh\u005cAnaconda2\u005clib\u005csite-packages\u005cmatplotlib\u005cmpl-data\u005cfonts\u005cafm\u005ccmmi10.afm
p4059
aVC:\u005cUsers\u005cAnirudh\u005cAnaconda2\u005clib\u005csite-packages\u005cmatplotlib\u005cmpl-data\u005cfonts\u005cpdfcorefonts\u005cCourier.afm
p4060
aVC:\u005cUsers\u005cAnirudh\u005cAnaconda2\u005clib\u005csite-packages\u005cmatplotlib\u005cmpl-data\u005cfonts\u005cafm\u005ccmsy10.afm
p4061
aVC:\u005cUsers\u005cAnirudh\u005cAnaconda2\u005clib\u005csite-packages\u005cmatplotlib\u005cmpl-data\u005cfonts\u005cafm\u005cpcrb8a.afm
p4062
aVC:\u005cUsers\u005cAnirudh\u005cAnaconda2\u005clib\u005csite-packages\u005cmatplotlib\u005cmpl-data\u005cfonts\u005cafm\u005cpplbi8a.afm
p4063
aVC:\u005cUsers\u005cAnirudh\u005cAnaconda2\u005clib\u005csite-packages\u005cmatplotlib\u005cmpl-data\u005cfonts\u005cafm\u005cptmr8a.afm
p4064
aVC:\u005cUsers\u005cAnirudh\u005cAnaconda2\u005clib\u005csite-packages\u005cmatplotlib\u005cmpl-data\u005cfonts\u005cpdfcorefonts\u005cHelvetica-BoldOblique.afm
p4065
aVC:\u005cUsers\u005cAnirudh\u005cAnaconda2\u005clib\u005csite-packages\u005cmatplotlib\u005cmpl-data\u005cfonts\u005cafm\u005cphvlo8a.afm
p4066
aVC:\u005cUsers\u005cAnirudh\u005cAnaconda2\u005clib\u005csite-packages\u005cmatplotlib\u005cmpl-data\u005cfonts\u005cafm\u005cputr8a.afm
p4067
aVC:\u005cUsers\u005cAnirudh\u005cAnaconda2\u005clib\u005csite-packages\u005cmatplotlib\u005cmpl-data\u005cfonts\u005cafm\u005cphvl8a.afm
p4068
aVC:\u005cUsers\u005cAnirudh\u005cAnaconda2\u005clib\u005csite-packages\u005cmatplotlib\u005cmpl-data\u005cfonts\u005cpdfcorefonts\u005cTimes-Roman.afm
p4069
aVC:\u005cUsers\u005cAnirudh\u005cAnaconda2\u005clib\u005csite-packages\u005cmatplotlib\u005cmpl-data\u005cfonts\u005cafm\u005cpncb8a.afm
p4070
aVC:\u005cUsers\u005cAnirudh\u005cAnaconda2\u005clib\u005csite-packages\u005cmatplotlib\u005cmpl-data\u005cfonts\u005cafm\u005cpncri8a.afm
p4071
aVC:\u005cUsers\u005cAnirudh\u005cAnaconda2\u005clib\u005csite-packages\u005cmatplotlib\u005cmpl-data\u005cfonts\u005cafm\u005ccmtt10.afm
p4072
aVC:\u005cUsers\u005cAnirudh\u005cAnaconda2\u005clib\u005csite-packages\u005cmatplotlib\u005cmpl-data\u005cfonts\u005cafm\u005cpplb8a.afm
p4073
aVC:\u005cUsers\u005cAnirudh\u005cAnaconda2\u005clib\u005csite-packages\u005cmatplotlib\u005cmpl-data\u005cfonts\u005cafm\u005cphvb8an.afm
p4074
aVC:\u005cUsers\u005cAnirudh\u005cAnaconda2\u005clib\u005csite-packages\u005cmatplotlib\u005cmpl-data\u005cfonts\u005cpdfcorefonts\u005cCourier-Oblique.afm
p4075
aVC:\u005cUsers\u005cAnirudh\u005cAnaconda2\u005clib\u005csite-packages\u005cmatplotlib\u005cmpl-data\u005cfonts\u005cafm\u005cpbkd8a.afm
p4076
aVC:\u005cUsers\u005cAnirudh\u005cAnaconda2\u005clib\u005csite-packages\u005cmatplotlib\u005cmpl-data\u005cfonts\u005cafm\u005cphvr8a.afm
p4077
aVC:\u005cUsers\u005cAnirudh\u005cAnaconda2\u005clib\u005csite-packages\u005cmatplotlib\u005cmpl-data\u005cfonts\u005cafm\u005cptmbi8a.afm
p4078
aVC:\u005cUsers\u005cAnirudh\u005cAnaconda2\u005clib\u005csite-packages\u005cmatplotlib\u005cmpl-data\u005cfonts\u005cpdfcorefonts\u005cCourier-BoldOblique.afm
p4079
aVC:\u005cUsers\u005cAnirudh\u005cAnaconda2\u005clib\u005csite-packages\u005cmatplotlib\u005cmpl-data\u005cfonts\u005cafm\u005cpncr8a.afm
p4080
aVC:\u005cUsers\u005cAnirudh\u005cAnaconda2\u005clib\u005csite-packages\u005cmatplotlib\u005cmpl-data\u005cfonts\u005cafm\u005ccmr10.afm
p4081
aVC:\u005cUsers\u005cAnirudh\u005cAnaconda2\u005clib\u005csite-packages\u005cmatplotlib\u005cmpl-data\u005cfonts\u005cafm\u005cphvbo8an.afm
p4082
aVC:\u005cUsers\u005cAnirudh\u005cAnaconda2\u005clib\u005csite-packages\u005cmatplotlib\u005cmpl-data\u005cfonts\u005cpdfcorefonts\u005cHelvetica-Bold.afm
p4083
aVC:\u005cUsers\u005cAnirudh\u005cAnaconda2\u005clib\u005csite-packages\u005cmatplotlib\u005cmpl-data\u005cfonts\u005cafm\u005cpzdr.afm
p4084
aVC:\u005cUsers\u005cAnirudh\u005cAnaconda2\u005clib\u005csite-packages\u005cmatplotlib\u005cmpl-data\u005cfonts\u005cafm\u005cpagko8a.afm
p4085
aVC:\u005cUsers\u005cAnirudh\u005cAnaconda2\u005clib\u005csite-packages\u005cmatplotlib\u005cmpl-data\u005cfonts\u005cpdfcorefonts\u005cTimes-Italic.afm
p4086
aVC:\u005cUsers\u005cAnirudh\u005cAnaconda2\u005clib\u005csite-packages\u005cmatplotlib\u005cmpl-data\u005cfonts\u005cafm\u005ccmex10.afm
p4087
aVC:\u005cUsers\u005cAnirudh\u005cAnaconda2\u005clib\u005csite-packages\u005cmatplotlib\u005cmpl-data\u005cfonts\u005cafm\u005cpbkl8a.afm
p4088
aVC:\u005cUsers\u005cAnirudh\u005cAnaconda2\u005clib\u005csite-packages\u005cmatplotlib\u005cmpl-data\u005cfonts\u005cafm\u005cptmb8a.afm
p4089
aVC:\u005cUsers\u005cAnirudh\u005cAnaconda2\u005clib\u005csite-packages\u005cmatplotlib\u005cmpl-data\u005cfonts\u005cafm\u005cpcrro8a.afm
p4090
aVC:\u005cUsers\u005cAnirudh\u005cAnaconda2\u005clib\u005csite-packages\u005cmatplotlib\u005cmpl-data\u005cfonts\u005cafm\u005cputb8a.afm
p4091
aVC:\u005cUsers\u005cAnirudh\u005cAnaconda2\u005clib\u005csite-packages\u005cmatplotlib\u005cmpl-data\u005cfonts\u005cafm\u005cphvro8a.afm
p4092
aVC:\u005cUsers\u005cAnirudh\u005cAnaconda2\u005clib\u005csite-packages\u005cmatplotlib\u005cmpl-data\u005cfonts\u005cafm\u005cpbkdi8a.afm
p4093
aVC:\u005cUsers\u005cAnirudh\u005cAnaconda2\u005clib\u005csite-packages\u005cmatplotlib\u005cmpl-data\u005cfonts\u005cpdfcorefonts\u005cSymbol.afm
p4094
aVC:\u005cUsers\u005cAnirudh\u005cAnaconda2\u005clib\u005csite-packages\u005cmatplotlib\u005cmpl-data\u005cfonts\u005cafm\u005cpsyr.afm
p4095
aVC:\u005cUsers\u005cAnirudh\u005cAnaconda2\u005clib\u005csite-packages\u005cmatplotlib\u005cmpl-data\u005cfonts\u005cpdfcorefonts\u005cZapfDingbats.afm
p4096
aVC:\u005cUsers\u005cAnirudh\u005cAnaconda2\u005clib\u005csite-packages\u005cmatplotlib\u005cmpl-data\u005cfonts\u005cpdfcorefonts\u005cCourier-Bold.afm
p4097
aVC:\u005cUsers\u005cAnirudh\u005cAnaconda2\u005clib\u005csite-packages\u005cmatplotlib\u005cmpl-data\u005cfonts\u005cpdfcorefonts\u005cTimes-Bold.afm
p4098
aVC:\u005cUsers\u005cAnirudh\u005cAnaconda2\u005clib\u005csite-packages\u005cmatplotlib\u005cmpl-data\u005cfonts\u005cafm\u005cpncbi8a.afm
p4099
aVC:\u005cUsers\u005cAnirudh\u005cAnaconda2\u005clib\u005csite-packages\u005cmatplotlib\u005cmpl-data\u005cfonts\u005cafm\u005cpplri8a.afm
p4100
aVC:\u005cUsers\u005cAnirudh\u005cAnaconda2\u005clib\u005csite-packages\u005cmatplotlib\u005cmpl-data\u005cfonts\u005cafm\u005cputri8a.afm
p4101
aVC:\u005cUsers\u005cAnirudh\u005cAnaconda2\u005clib\u005csite-packages\u005cmatplotlib\u005cmpl-data\u005cfonts\u005cafm\u005cptmri8a.afm
p4102
aVC:\u005cUsers\u005cAnirudh\u005cAnaconda2\u005clib\u005csite-packages\u005cmatplotlib\u005cmpl-data\u005cfonts\u005cafm\u005cpzcmi8a.afm
p4103
aVC:\u005cUsers\u005cAnirudh\u005cAnaconda2\u005clib\u005csite-packages\u005cmatplotlib\u005cmpl-data\u005cfonts\u005cafm\u005cpbkli8a.afm
p4104
aVC:\u005cUsers\u005cAnirudh\u005cAnaconda2\u005clib\u005csite-packages\u005cmatplotlib\u005cmpl-data\u005cfonts\u005cafm\u005cphvro8an.afm
p4105
aVC:\u005cUsers\u005cAnirudh\u005cAnaconda2\u005clib\u005csite-packages\u005cmatplotlib\u005cmpl-data\u005cfonts\u005cafm\u005cphvbo8a.afm
p4106
aVC:\u005cUsers\u005cAnirudh\u005cAnaconda2\u005clib\u005csite-packages\u005cmatplotlib\u005cmpl-data\u005cfonts\u005cafm\u005cputbi8a.afm
p4107
aVC:\u005cUsers\u005cAnirudh\u005cAnaconda2\u005clib\u005csite-packages\u005cmatplotlib\u005cmpl-data\u005cfonts\u005cafm\u005cpagk8a.afm
p4108
aVC:\u005cUsers\u005cAnirudh\u005cAnaconda2\u005clib\u005csite-packages\u005cmatplotlib\u005cmpl-data\u005cfonts\u005cafm\u005cpagdo8a.afm
p4109
aVC:\u005cUsers\u005cAnirudh\u005cAnaconda2\u005clib\u005csite-packages\u005cmatplotlib\u005cmpl-data\u005cfonts\u005cpdfcorefonts\u005cHelvetica.afm
p4110
aVC:\u005cUsers\u005cAnirudh\u005cAnaconda2\u005clib\u005csite-packages\u005cmatplotlib\u005cmpl-data\u005cfonts\u005cpdfcorefonts\u005cHelvetica-Oblique.afm
p4111
aVC:\u005cUsers\u005cAnirudh\u005cAnaconda2\u005clib\u005csite-packages\u005cmatplotlib\u005cmpl-data\u005cfonts\u005cafm\u005cpcrbo8a.afm
p4112
aVC:\u005cUsers\u005cAnirudh\u005cAnaconda2\u005clib\u005csite-packages\u005cmatplotlib\u005cmpl-data\u005cfonts\u005cafm\u005cpplr8a.afm
p4113
asS'afmlist'
p4114
(lp4115
g1
(g8
g3
NtRp4116
(dp4117
g11
Vnormal
p4118
sg13
S'Helvetica'
p4119
sg15
I500
sg16
Vcondensed
p4120
sg17
g4118
sg18
g4052
sg20
Vscalable
p4121
sbag1
(g8
g3
NtRp4122
(dp4123
g11
g4118
sg13
S'Helvetica'
p4124
sg15
I700
sg16
g4118
sg17
g4118
sg18
g4055
sg20
g4121
sbag1
(g8
g3
NtRp4125
(dp4126
g11
g4118
sg13
S'Courier'
p4127
sg15
I500
sg16
g4118
sg17
g4118
sg18
g4056
sg20
g4121
sbag1
(g8
g3
NtRp4128
(dp4129
g11
g4118
sg13
S'ITC Avant Garde Gothic'
p4130
sg15
I600
sg16
g4118
sg17
g4118
sg18
g4057
sg20
g4121
sbag1
(g8
g3
NtRp4131
(dp4132
g11
Vitalic
p4133
sg13
S'Times'
p4134
sg15
I700
sg16
g4118
sg17
g4118
sg18
g4058
sg20
g4121
sbag1
(g8
g3
NtRp4135
(dp4136
g11
g4133
sg13
S'Computer Modern'
p4137
sg15
I500
sg16
g4118
sg17
g4118
sg18
g4059
sg20
g4121
sbag1
(g8
g3
NtRp4138
(dp4139
g11
g4118
sg13
S'Courier'
p4140
sg15
I500
sg16
g4118
sg17
g4118
sg18
g4060
sg20
g4121
sbag1
(g8
g3
NtRp4141
(dp4142
g11
g4133
sg13
S'Computer Modern'
p4143
sg15
I500
sg16
g4118
sg17
g4118
sg18
g4061
sg20
g4121
sbag1
(g8
g3
NtRp4144
(dp4145
g11
g4118
sg13
S'Courier'
p4146
sg15
I700
sg16
g4118
sg17
g4118
sg18
g4062
sg20
g4121
sbag1
(g8
g3
NtRp4147
(dp4148
g11
g4133
sg13
S'Palatino'
p4149
sg15
I700
sg16
g4118
sg17
g4118
sg18
g4063
sg20
g4121
sbag1
(g8
g3
NtRp4150
(dp4151
g11
g4118
sg13
S'Times'
p4152
sg15
I500
sg16
g4118
sg17
g4118
sg18
g4064
sg20
g4121
sbag1
(g8
g3
NtRp4153
(dp4154
g11
g4133
sg13
S'Helvetica'
p4155
sg15
I700
sg16
g4118
sg17
g4118
sg18
g4065
sg20
g4121
sbag1
(g8
g3
NtRp4156
(dp4157
g11
g4133
sg13
S'Helvetica'
p4158
sg15
I200
sg16
g4118
sg17
g4118
sg18
g4066
sg20
g4121
sbag1
(g8
g3
NtRp4159
(dp4160
g11
g4118
sg13
S'Utopia'
p4161
sg15
I400
sg16
g4118
sg17
g4118
sg18
g4067
sg20
g4121
sbag1
(g8
g3
NtRp4162
(dp4163
g11
g4118
sg13
S'Helvetica'
p4164
sg15
I200
sg16
g4118
sg17
g4118
sg18
g4068
sg20
g4121
sbag1
(g8
g3
NtRp4165
(dp4166
g11
g4118
sg13
S'Times'
p4167
sg15
I500
sg16
g4118
sg17
g4118
sg18
g4069
sg20
g4121
sbag1
(g8
g3
NtRp4168
(dp4169
g11
g4118
sg13
S'New Century Schoolbook'
p4170
sg15
I700
sg16
g4118
sg17
g4118
sg18
g4070
sg20
g4121
sbag1
(g8
g3
NtRp4171
(dp4172
g11
g4133
sg13
S'New Century Schoolbook'
p4173
sg15
I500
sg16
g4118
sg17
g4118
sg18
g4071
sg20
g4121
sbag1
(g8
g3
NtRp4174
(dp4175
g11
g4118
sg13
S'Computer Modern'
p4176
sg15
I500
sg16
g4118
sg17
g4118
sg18
g4072
sg20
g4121
sbag1
(g8
g3
NtRp4177
(dp4178
g11
g4118
sg13
S'Palatino'
p4179
sg15
I700
sg16
g4118
sg17
g4118
sg18
g4073
sg20
g4121
sbag1
(g8
g3
NtRp4180
(dp4181
g11
g4118
sg13
S'Helvetica'
p4182
sg15
I700
sg16
g4120
sg17
g4118
sg18
g4074
sg20
g4121
sbag1
(g8
g3
NtRp4183
(dp4184
g11
g4133
sg13
S'Courier'
p4185
sg15
I500
sg16
g4118
sg17
g4118
sg18
g4075
sg20
g4121
sbag1
(g8
g3
NtRp4186
(dp4187
g11
g4118
sg13
S'ITC Bookman'
p4188
sg15
I600
sg16
g4118
sg17
g4118
sg18
g4076
sg20
g4121
sbag1
(g8
g3
NtRp4189
(dp4190
g11
g4118
sg13
S'Helvetica'
p4191
sg15
I500
sg16
g4118
sg17
g4118
sg18
g4077
sg20
g4121
sbag1
(g8
g3
NtRp4192
(dp4193
g11
g4133
sg13
S'Times'
p4194
sg15
I700
sg16
g4118
sg17
g4118
sg18
g4078
sg20
g4121
sbag1
(g8
g3
NtRp4195
(dp4196
g11
g4133
sg13
S'Courier'
p4197
sg15
I700
sg16
g4118
sg17
g4118
sg18
g4079
sg20
g4121
sbag1
(g8
g3
NtRp4198
(dp4199
g11
g4118
sg13
S'New Century Schoolbook'
p4200
sg15
I500
sg16
g4118
sg17
g4118
sg18
g4080
sg20
g4121
sbag1
(g8
g3
NtRp4201
(dp4202
g11
g4118
sg13
S'Computer Modern'
p4203
sg15
I500
sg16
g4118
sg17
g4118
sg18
g4081
sg20
g4121
sbag1
(g8
g3
NtRp4204
(dp4205
g11
g4133
sg13
S'Helvetica'
p4206
sg15
I700
sg16
g4120
sg17
g4118
sg18
g4082
sg20
g4121
sbag1
(g8
g3
NtRp4207
(dp4208
g11
g4118
sg13
S'Helvetica'
p4209
sg15
I700
sg16
g4118
sg17
g4118
sg18
g4083
sg20
g4121
sbag1
(g8
g3
NtRp4210
(dp4211
g11
g4118
sg13
S'ITC Zapf Dingbats'
p4212
sg15
I500
sg16
g4118
sg17
g4118
sg18
g4084
sg20
g4121
sbag1
(g8
g3
NtRp4213
(dp4214
g11
g4133
sg13
S'ITC Avant Garde Gothic'
p4215
sg15
I400
sg16
g4118
sg17
g4118
sg18
g4085
sg20
g4121
sbag1
(g8
g3
NtRp4216
(dp4217
g11
g4133
sg13
S'Times'
p4218
sg15
I500
sg16
g4118
sg17
g4118
sg18
g4086
sg20
g4121
sbag1
(g8
g3
NtRp4219
(dp4220
g11
g4118
sg13
S'Computer Modern'
p4221
sg15
I500
sg16
g4118
sg17
g4118
sg18
g4087
sg20
g4121
sbag1
(g8
g3
NtRp4222
(dp4223
g11
g4118
sg13
S'ITC Bookman'
p4224
sg15
I200
sg16
g4118
sg17
g4118
sg18
g4088
sg20
g4121
sbag1
(g8
g3
NtRp4225
(dp4226
g11
g4118
sg13
S'Times'
p4227
sg15
I700
sg16
g4118
sg17
g4118
sg18
g4089
sg20
g4121
sbag1
(g8
g3
NtRp4228
(dp4229
g11
g4133
sg13
S'Courier'
p4230
sg15
I500
sg16
g4118
sg17
g4118
sg18
g4090
sg20
g4121
sbag1
(g8
g3
NtRp4231
(dp4232
g11
g4118
sg13
S'Utopia'
p4233
sg15
I700
sg16
g4118
sg17
g4118
sg18
g4091
sg20
g4121
sbag1
(g8
g3
NtRp4234
(dp4235
g11
g4133
sg13
S'Helvetica'
p4236
sg15
I500
sg16
g4118
sg17
g4118
sg18
g4092
sg20
g4121
sbag1
(g8
g3
NtRp4237
(dp4238
g11
g4133
sg13
S'ITC Bookman'
p4239
sg15
I600
sg16
g4118
sg17
g4118
sg18
g4093
sg20
g4121
sbag1
(g8
g3
NtRp4240
(dp4241
g11
g4118
sg13
S'Symbol'
p4242
sg15
I500
sg16
g4118
sg17
g4118
sg18
g4094
sg20
g4121
sbag1
(g8
g3
NtRp4243
(dp4244
g11
g4118
sg13
S'Symbol'
p4245
sg15
I500
sg16
g4118
sg17
g4118
sg18
g4095
sg20
g4121
sbag1
(g8
g3
NtRp4246
(dp4247
g11
g4118
sg13
S'ZapfDingbats'
p4248
sg15
I500
sg16
g4118
sg17
g4118
sg18
g4096
sg20
g4121
sbag1
(g8
g3
NtRp4249
(dp4250
g11
g4118
sg13
S'Courier'
p4251
sg15
I700
sg16
g4118
sg17
g4118
sg18
g4097
sg20
g4121
sbag1
(g8
g3
NtRp4252
(dp4253
g11
g4118
sg13
S'Times'
p4254
sg15
I700
sg16
g4118
sg17
g4118
sg18
g4098
sg20
g4121
sbag1
(g8
g3
NtRp4255
(dp4256
g11
g4133
sg13
S'New Century Schoolbook'
p4257
sg15
I700
sg16
g4118
sg17
g4118
sg18
g4099
sg20
g4121
sbag1
(g8
g3
NtRp4258
(dp4259
g11
g4133
sg13
S'Palatino'
p4260
sg15
I500
sg16
g4118
sg17
g4118
sg18
g4100
sg20
g4121
sbag1
(g8
g3
NtRp4261
(dp4262
g11
g4133
sg13
S'Utopia'
p4263
sg15
I400
sg16
g4118
sg17
g4118
sg18
g4101
sg20
g4121
sbag1
(g8
g3
NtRp4264
(dp4265
g11
g4133
sg13
S'Times'
p4266
sg15
I500
sg16
g4118
sg17
g4118
sg18
g4102
sg20
g4121
sbag1
(g8
g3
NtRp4267
(dp4268
g11
g4133
sg13
S'ITC Zapf Chancery'
p4269
sg15
I500
sg16
g4118
sg17
g4118
sg18
g4103
sg20
g4121
sbag1
(g8
g3
NtRp4270
(dp4271
g11
g4133
sg13
S'ITC Bookman'
p4272
sg15
I200
sg16
g4118
sg17
g4118
sg18
g4104
sg20
g4121
sbag1
(g8
g3
NtRp4273
(dp4274
g11
g4133
sg13
S'Helvetica'
p4275
sg15
I500
sg16
g4120
sg17
g4118
sg18
g4105
sg20
g4121
sbag1
(g8
g3
NtRp4276
(dp4277
g11
g4133
sg13
S'Helvetica'
p4278
sg15
I700
sg16
g4118
sg17
g4118
sg18
g4106
sg20
g4121
sbag1
(g8
g3
NtRp4279
(dp4280
g11
g4133
sg13
S'Utopia'
p4281
sg15
I700
sg16
g4118
sg17
g4118
sg18
g4107
sg20
g4121
sbag1
(g8
g3
NtRp4282
(dp4283
g11
g4118
sg13
S'ITC Avant Garde Gothic'
p4284
sg15
I400
sg16
g4118
sg17
g4118
sg18
g4108
sg20
g4121
sbag1
(g8
g3
NtRp4285
(dp4286
g11
g4133
sg13
S'ITC Avant Garde Gothic'
p4287
sg15
I600
sg16
g4118
sg17
g4118
sg18
g4109
sg20
g4121
sbag1
(g8
g3
NtRp4288
(dp4289
g11
g4118
sg13
S'Helvetica'
p4290
sg15
I500
sg16
g4118
sg17
g4118
sg18
g4110
sg20
g4121
sbag1
(g8
g3
NtRp4291
(dp4292
g11
g4133
sg13
S'Helvetica'
p4293
sg15
I500
sg16
g4118
sg17
g4118
sg18
g4111
sg20
g4121
sbag1
(g8
g3
NtRp4294
(dp4295
g11
g4133
sg13
S'Courier'
p4296
sg15
I700
sg16
g4118
sg17
g4118
sg18
g4112
sg20
g4121
sbag1
(g8
g3
NtRp4297
(dp4298
g11
g4118
sg13
S'Palatino'
p4299
sg15
I500
sg16
g4118
sg17
g4118
sg18
g4113
sg20
g4121
sbasb.